ccopy_reg
_reconstructor
p0
(ctensorlayer.nlp
Vocabulary
p1
c__builtin__
object
p2
Ntp3
Rp4
(dp5
S'vocab'
p6
(dp7
S'stock'
p8
I2459
sS'buff'
p9
I5073
sS'images'
p10
I4918
sS'powdery'
p11
I4402
sS'ridden'
p12
I5327
sS'oraand'
p13
I5125
sS'comparatively'
p14
I2784
sS'crumpled'
p15
I807
sS'yellow'
p16
I13
sS'theflower'
p17
I3826
sS'four'
p18
I160
sS'brightening'
p19
I4856
sS'asian'
p20
I3616
sS'hanging'
p21
I398
sS'consists'
p22
I382
sS'woody'
p23
I1211
sS'ridiculous'
p24
I4695
sS'yelloe'
p25
I3044
sS'assembled'
p26
I2598
sS'adorning'
p27
I4463
sS'spidery'
p28
I3754
sS'whose'
p29
I303
sS'slimmer'
p30
I4039
sS'feeding'
p31
I3212
sS'patches'
p32
I178
sS'visable'
p33
I2131
sS'segments'
p34
I1785
sS'swan'
p35
I3214
sS'endings'
p36
I3070
sS'stlye'
p37
I2299
sS'patched'
p38
I1476
sS'under'
p39
I342
sS'inwards'
p40
I669
sS'dogs'
p41
I3498
sS'verdant'
p42
I2405
sS'predicel'
p43
I2069
sS'filliments'
p44
I2649
sS'alternating'
p45
I320
sS'ceramic'
p46
I4203
sS'shielding'
p47
I5403
sS'emerged'
p48
I3205
sS'ashy'
p49
I3843
sS'rhubarb'
p50
I5391
sS'blanket'
p51
I5309
sS'rise'
p52
I1145
sS'edhes'
p53
I1919
sS'connects'
p54
I2227
sS'vase'
p55
I548
sS'shoot'
p56
I1304
sS'pstil'
p57
I4375
sS'every'
p58
I966
sS'shpaed'
p59
I906
sS'laternatelly'
p60
I4188
sS'affect'
p61
I4112
sS'altenately'
p62
I3142
sS'werid'
p63
I3472
sS'vast'
p64
I2467
sS'possibility'
p65
I5166
sS'dominate'
p66
I3892
sS'pyrple'
p67
I3739
sS'grains'
p68
I3873
sS'metals'
p69
I5296
sS'wooden'
p70
I1165
sS'cause'
p71
I2594
sS'wildflower'
p72
I3683
sS'wards'
p73
I2724
sS'rufflley'
p74
I4407
sS'purplerish'
p75
I3339
sS'greenish'
p76
I318
sS'roundness'
p77
I4617
sS'poppy'
p78
I2794
sS'venus'
p79
I2597
sS'bordering'
p80
I2975
sS'pentagram'
p81
I2842
sS'heading'
p82
I1716
sS'fluttery'
p83
I499
sS'enjoy'
p84
I2183
sS'parted'
p85
I3528
sS'betal'
p86
I3724
sS'ocnical'
p87
I2636
sS'throught'
p88
I4398
sS'feathery'
p89
I702
sS'grainy'
p90
I5068
sS'consistent'
p91
I1461
sS'almond'
p92
I749
sS'feathers'
p93
I799
sS'lavender'
p94
I114
sS'frosted'
p95
I2456
sS'horn'
p96
I331
sS'nail'
p97
I2973
sS'surrounding'
p98
I87
sS'second'
p99
I1209
sS'follow'
p100
I4733
sS'roomy'
p101
I4194
sS'cactus'
p102
I786
sS'specs'
p103
I1820
sS'quill'
p104
I2657
sS'shining'
p105
I2029
sS'blue'
p106
I46
sS'statmen'
p107
I2037
sS'purplepedicel'
p108
I3170
sS'hide'
p109
I721
sS'semicircular'
p110
I3917
sS'tiered'
p111
I1705
sS'pedivels'
p112
I5416
sS'altanative'
p113
I4459
sS'striations'
p114
I537
sS'serrated'
p115
I464
sS'fingers'
p116
I5015
sS'hazy'
p117
I2033
sS'lights'
p118
I2728
sS'specked'
p119
I4948
sS'midway'
p120
I4186
sS'above'
p121
I379
sS'peticel'
p122
I1265
sS'new'
p123
I1702
sS'tips'
p124
I62
sS'increasing'
p125
I1965
sS'ever'
p126
I2964
sS'consisting'
p127
I709
sS'harbors'
p128
I3806
sS'song'
p129
I4246
sS'textures'
p130
I1097
sS'chaotic'
p131
I3661
sS'stringlike'
p132
I2943
sS'festive'
p133
I2667
sS'sleek'
p134
I4373
sS'shimmery'
p135
I4487
sS'men'
p136
I2327
sS'wrapping'
p137
I1396
sS'hairlike'
p138
I573
sS'here'
p139
I1084
sS'hundreds'
p140
I488
sS'conglomerate'
p141
I4494
sS'triagle'
p142
I3904
sS'flores'
p143
I3258
sS'floret'
p144
I756
sS'othersa'
p145
I3210
sS'whoite'
p146
I2990
sS'textured'
p147
I455
sS'represented'
p148
I4049
sS'surfaced'
p149
I4860
sS'violate'
p150
I3020
sS'dry'
p151
I1867
sS'ourple'
p152
I1994
sS'greenery'
p153
I2755
sS'swing'
p154
I3269
sS'taper'
p155
I1328
sS'gradating'
p156
I1177
sS'bloomed'
p157
I908
sS'leaves'
p158
I55
sS'leaver'
p159
I5284
sS'approaches'
p160
I2235
sS'singluar'
p161
I3113
sS'pestals'
p162
I3336
sS'rupwards'
p163
I4597
sS'alternatingly'
p164
I5210
sS'loop'
p165
I4211
sS'smoke'
p166
I4766
sS'theprominent'
p167
I4957
sS'symmetrical'
p168
I595
sS'theres'
p169
I2637
sS'changes'
p170
I1632
sS'leaved'
p171
I1510
sS'fitting'
p172
I3152
sS'golden'
p173
I173
sS'prints'
p174
I2157
sS'spaoted'
p175
I5423
sS'bumblebees'
p176
I3352
sS'stray'
p177
I4354
sS'lengthed'
p178
I2651
sS'straw'
p179
I2495
sS'surmounts'
p180
I4022
sS'shaoe'
p181
I2836
sS'cloistered'
p182
I3612
sS'cylinder'
p183
I1102
sS'orangish'
p184
I635
sS'sliced'
p185
I3655
sS'visible'
p186
I106
sS'ninety'
p187
I2450
sS'yekllow'
p188
I2617
sS'highlightsthe'
p189
I4896
sS'stern'
p190
I3903
sS'total'
p191
I2929
sS'unit'
p192
I4452
sS'meaty'
p193
I5324
sS'poka'
p194
I5229
sS'worm'
p195
I4849
sS'squareish'
p196
I4368
sS'reflected'
p197
I3574
sS'would'
p198
I1178
sS'limps'
p199
I3364
sS'spiky'
p200
I165
sS'bundles'
p201
I4224
sS'arms'
p202
I3986
sS'intervals'
p203
I2925
sS'gradate'
p204
I1199
sS'leaks'
p205
I4077
sS'ellow'
p206
I5325
sS'music'
p207
I4048
sS'calm'
p208
I3050
sS'spike'
p209
I437
sS'bolstered'
p210
I4121
sS'twirled'
p211
I4165
sS'bundled'
p212
I2112
sS'type'
p213
I545
sS'pistil'
p214
I33
sS'cloer'
p215
I4454
sS'separated'
p216
I396
sS'whorls'
p217
I1085
sS'coupled'
p218
I2125
sS'peeping'
p219
I4958
sS'saber'
p220
I5375
sS'composite'
p221
I1022
sS'expose'
p222
I1596
sS'starburst'
p223
I1149
sS'billowing'
p224
I1799
sS'brushy'
p225
I3594
sS'gorgous'
p226
I4951
sS'warm'
p227
I1136
sS'rip'
p228
I4269
sS'separates'
p229
I4716
sS'ovate'
p230
I4558
sS'90'
p231
I2132
sS'ward'
p232
I710
sS'hold'
p233
I905
sS'pouch'
p234
I2134
sS'sorry'
p235
I4079
sS'origin'
p236
I2280
sS'rpounded'
p237
I4949
sS'me'
p238
I1181
sS'leavesare'
p239
I4627
sS'enjoying'
p240
I3343
sS'join'
p241
I1777
sS'thanks'
p242
I4056
sS'staymens'
p243
I2979
sS'potted'
p244
I4832
sS'blade'
p245
I961
sS'eclipse'
p246
I5320
sS'ery'
p247
I3842
sS'worn'
p248
I3081
sS'onit'
p249
I3293
sS'suggestive'
p250
I4657
sS'rim'
p251
I1344
sS'wort'
p252
I3375
sS'foliage'
p253
I767
sS'blooming'
p254
I611
sS'elbow'
p255
I3506
sS'hibiscious'
p256
I3937
sS'root'
p257
I2523
sS'cuped'
p258
I5404
sS'pinecone'
p259
I926
sS'decorative'
p260
I3357
sS'loosen'
p261
I4557
sS'radiance'
p262
I4712
sS'purlp'
p263
I5242
sS'triple'
p264
I2752
sS'give'
p265
I641
sS'dro0py'
p266
I3399
sS'tending'
p267
I4264
sS'bilaterally'
p268
I1972
sS'ower'
p269
I3118
sS'organized'
p270
I1311
sS'smane'
p271
I5406
sS'pisils'
p272
I4344
sS'honey'
p273
I1721
sS'purle'
p274
I2365
sS'antherss'
p275
I2008
sS'fibonacci'
p276
I3334
sS'want'
p277
I2411
sS'wow'
p278
I5118
sS'polen'
p279
I2209
sS'david'
p280
I4130
sS'attract'
p281
I1570
sS'looser'
p282
I4550
sS'surronded'
p283
I5373
sS'end'
p284
I262
sS'turn'
p285
I263
sS'provide'
p286
I1658
sS'mens'
p287
I4911
sS'serrate'
p288
I3657
sS'globular'
p289
I2184
sS'feature'
p290
I153
sS'how'
p291
I1043
sS'hot'
p292
I315
sS'anthered'
p293
I5308
sS'insize'
p294
I3358
sS'wethering'
p295
I3950
sS'blackish'
p296
I1970
sS'cheetah'
p297
I1547
sS'padle'
p298
I3150
sS'etals'
p299
I1758
sS'nright'
p300
I2861
sS'unuqie'
p301
I4687
sS'description'
p302
I3153
sS'beauty'
p303
I675
sS'arcs'
p304
I3435
sS'less'
p305
I2294
sS'pokey'
p306
I1139
sS'ladder'
p307
I3519
sS'after'
p308
I1957
sS'pollinating'
p309
I3252
sS'shap'
p310
I1594
sS'modest'
p311
I5049
sS'ova'
p312
I2447
sS'lternately'
p313
I3799
sS'lay'
p314
I777
sS'dye'
p315
I5167
sS'skinnt'
p316
I5195
sS'staen'
p317
I2251
sS'pigment'
p318
I2870
sS'lap'
p319
I1619
sS'parallel'
p320
I2498
sS'types'
p321
I1294
sS'receding'
p322
I4274
sS'hotpink'
p323
I5279
sS'amid'
p324
I3433
sS'attracts'
p325
I5304
sS'poiinty'
p326
I2500
sS'lost'
p327
I4694
sS'imbedded'
p328
I4061
sS'encompassing'
p329
I1174
sS'checkerboard'
p330
I1722
sS'green'
p331
I23
sS'specks'
p332
I609
sS'enter'
p333
I2188
sS'stipes'
p334
I2865
sS'wing'
p335
I1355
sS'greed'
p336
I1187
sS'wine'
p337
I1405
sS'ovule'
p338
I175
sS'spiraled'
p339
I1425
sS'fowers'
p340
I5301
sS'oprange'
p341
I3554
sS'unfolds'
p342
I1920
sS'withing'
p343
I2680
sS'sprout'
p344
I1305
sS'over'
p345
I244
sS'stumpy'
p346
I2789
sS'vary'
p347
I803
sS'underside'
p348
I1128
sS'proportionate'
p349
I3996
sS'revolve'
p350
I3874
sS'thje'
p351
I3026
sS'ovel'
p352
I3502
sS'dappling'
p353
I5415
sS'spotten'
p354
I4817
sS'medusa'
p355
I3687
sS'budding'
p356
I1069
sS'sharped'
p357
I4608
sS'before'
p358
I1374
sS'greebn'
p359
I3824
sS'difference'
p360
I2116
sS'mottling'
p361
I1724
sS'middel'
p362
I3370
sS'highlights'
p363
I476
sS'trying'
p364
I3132
sS'diffrent'
p365
I1997
sS'exhibits'
p366
I2875
sS'writing'
p367
I3618
sS'coverd'
p368
I3556
sS'tilts'
p369
I2591
sS'grandmother'
p370
I4442
sS'distinguishing'
p371
I2245
sS'almonds'
p372
I4780
sS'blueberry'
p373
I1606
sS'fade'
p374
I350
sS'flocked'
p375
I5420
sS'hidden'
p376
I561
sS'nickle'
p377
I4315
sS'easier'
p378
I4129
sS'descend'
p379
I3721
sS'downy'
p380
I4901
sS'then'
p381
I449
sS'them'
p382
I120
sS'blots'
p383
I5115
sS'breddish'
p384
I3553
sS'widely'
p385
I1003
sS'combination'
p386
I680
sS'press'
p387
I5303
sS'similar'
p388
I532
sS'thee'
p389
I2515
sS'finish'
p390
I2457
sS'often'
p391
I1837
sS'band'
p392
I1735
sS'paralell'
p393
I4844
sS'mustardy'
p394
I2798
sS'they'
p395
I158
sS'ribbing'
p396
I1779
sS'splatters'
p397
I5111
sS'pinkish'
p398
I259
sS'silver'
p399
I1615
sS'extrude'
p400
I2899
sS'honeybee'
p401
I3311
sS'fringed'
p402
I462
sS'haphazardly'
p403
I4176
sS'brightness'
p404
I3810
sS'freshly'
p405
I4560
sS'fuscia'
p406
I1291
sS'alarger'
p407
I2371
sS'alternately'
p408
I468
sS'l'
p409
I2749
sS'explode'
p410
I2127
sS'noticable'
p411
I2278
sS'fringes'
p412
I621
sS'stalky'
p413
I2480
sS'arrow'
p414
I912
sS'each'
p415
I117
sS'poisonous'
p416
I5380
sS'volcano'
p417
I3322
sS'sliver'
p418
I4481
sS'side'
p419
I424
sS'blushed'
p420
I2793
sS'spokes'
p421
I3014
sS'perimeter'
p422
I1737
sS'lifted'
p423
I5059
sS'suspended'
p424
I2334
sS'independent'
p425
I1915
sS'trumpit'
p426
I1255
sS'series'
p427
I761
sS'whie'
p428
I2053
sS'ligh'
p429
I2155
sS'spider'
p430
I994
sS'tinting'
p431
I2288
sS'crocus'
p432
I4524
sS'used'
p433
I2443
sS'filamentous'
p434
I1859
sS'combining'
p435
I2375
sS'navy'
p436
I1361
sS'lawyers'
p437
I4511
sS'whit'
p438
I556
sS'recognizable'
p439
I3207
sS'ring'
p440
I193
sS'smaleer'
p441
I4709
sS'prange'
p442
I2918
sS'pigments'
p443
I5211
sS'velvet'
p444
I704
sS'gradient'
p445
I661
sS'haired'
p446
I2846
sS'views'
p447
I3898
sS'protuberances'
p448
I2076
sS'sparkly'
p449
I3779
sS'gradation'
p450
I3634
sS'arewhite'
p451
I2277
sS'grren'
p452
I3676
sS're'
p453
I554
sS'laid'
p454
I2980
sS'sane'
p455
I4249
sS'weighted'
p456
I4432
sS'amethyst'
p457
I4386
sS'levender'
p458
I4920
sS'newly'
p459
I3893
sS'marigold'
p460
I4258
sS'forth'
p461
I3811
sS'fllower'
p462
I4526
sS'foundation'
p463
I3071
sS'splashed'
p464
I2779
sS'turning'
p465
I776
sS'linear'
p466
I1595
sS'barrier'
p467
I3347
sS'colorless'
p468
I2688
sS'shaoed'
p469
I2706
sS'hang'
p470
I593
sS'outiside'
p471
I5230
sS'enclosing'
p472
I531
sS'sheer'
p473
I1440
sS'ascending'
p474
I771
sS'shriveled'
p475
I1513
sS'pumpkins'
p476
I5112
sS'formation'
p477
I233
sS'splashes'
p478
I816
sS'grapes'
p479
I1268
sS'darkened'
p480
I4493
sS'crowned'
p481
I2303
sS'pestical'
p482
I4603
sS'apposed'
p483
I3286
sS'knit'
p484
I1642
sS'fots'
p485
I3077
sS'glisten'
p486
I4883
sS'angd'
p487
I2395
sS'saggy'
p488
I2953
sS'shaggy'
p489
I1028
sS'whote'
p490
I4879
sS'exposing'
p491
I1263
sS'created'
p492
I5193
sS'writhing'
p493
I3678
sS'starts'
p494
I1352
sS'appendages'
p495
I1427
sS'dramatically'
p496
I2725
sS'creates'
p497
I1711
sS'flawless'
p498
I3158
sS'twirlled'
p499
I3455
sS'ish'
p500
I1637
sS'sahp'
p501
I2418
sS'isn'
p502
I4629
sS'stigmen'
p503
I4167
sS'clothes'
p504
I4443
sS'onto'
p505
I1090
sS'patrn'
p506
I5271
sS'greenred'
p507
I3145
sS'pistuil'
p508
I4221
sS'buncheed'
p509
I4212
sS'organize'
p510
I3911
sS'features'
p511
I134
sS'poofs'
p512
I3967
sS'accent'
p513
I1170
sS'disfigured'
p514
I5153
sS'laege'
p515
I4358
sS'poofy'
p516
I3543
sS'primary'
p517
I2767
sS'flowaer'
p518
I5295
sS'lettuce'
p519
I2276
sS'featured'
p520
I2602
sS'warped'
p521
I2475
sS'blossomed'
p522
I1250
sS'another'
p523
I416
sS'peetals'
p524
I2423
sS'radiate'
p525
I685
sS'thick'
p526
I79
sS'tangle'
p527
I2462
sS'coneflower'
p528
I3413
sS'lagge'
p529
I2787
sS'hood'
p530
I1536
sS'psots'
p531
I5428
sS'bitten'
p532
I4359
sS'magnificent'
p533
I1545
sS'protude'
p534
I5405
sS'likely'
p535
I4327
sS'similarly'
p536
I1100
sS'top'
p537
I132
sS'neck'
p538
I2710
sS'protracted'
p539
I3226
sS'twisted'
p540
I598
sS'approximately'
p541
I1270
sS'plentiful'
p542
I1622
sS'fringing'
p543
I4063
sS'alternatly'
p544
I1053
sS'periwinkle'
p545
I936
sS'too'
p546
I1039
sS'blossoms'
p547
I195
sS'wildly'
p548
I3484
sS'puffs'
p549
I5364
sS'airy'
p550
I2734
sS'stmane'
p551
I3706
sS'legs'
p552
I1718
sS'offer'
p553
I4126
sS'ranging'
p554
I836
sS'unbroken'
p555
I2831
sS'butter'
p556
I1544
sS'yellowstamen'
p557
I2342
sS'teardrops'
p558
I3832
sS'decorations'
p559
I2676
sS'centered'
p560
I613
sS'surmounting'
p561
I2357
sS'cirled'
p562
I4509
sS'whith'
p563
I3019
sS'serve'
p564
I2738
sS'propminent'
p565
I3583
sS'whgite'
p566
I4679
sS'direct'
p567
I4320
sS'ofp'
p568
I4060
sS'cornlike'
p569
I4823
sS'heap'
p570
I3537
sS'dozen'
p571
I820
sS'somewhat'
p572
I667
sS'zany'
p573
I4464
sS'prominate'
p574
I3648
sS'peculiar'
p575
I1824
sS'centeres'
p576
I3186
sS'begins'
p577
I1533
sS'distance'
p578
I2169
sS'last'
p579
I4653
sS'ovl'
p580
I4495
sS'elegant'
p581
I1072
sS'rd'
p582
I4940
sS'bits'
p583
I1080
sS'laternate'
p584
I5244
sS'lightyellow'
p585
I3321
sS'tree'
p586
I788
sS'sepel'
p587
I1363
sS'seated'
p588
I1633
sS'prong'
p589
I4904
sS'shower'
p590
I1933
sS'encase'
p591
I2166
sS'flame'
p592
I1445
sS'mermaid'
p593
I4719
sS'k'
p594
I2720
sS'contrasted'
p595
I2747
sS'boasting'
p596
I4352
sS'ppointed'
p597
I3778
sS'mini'
p598
I1347
sS'longy'
p599
I4686
sS'rae'
p600
I1357
sS'pollination'
p601
I1743
sS'membranes'
p602
I5393
sS'thistles'
p603
I3338
sS'pistons'
p604
I2812
sS'ywlloe'
p605
I3859
sS'modern'
p606
I3229
sS'paddles'
p607
I3045
sS'spectrum'
p608
I4929
sS'aprt'
p609
I5017
sS'clumpy'
p610
I3593
sS'pedalled'
p611
I4301
sS'seed'
p612
I1239
sS'manner'
p613
I314
sS'leafs'
p614
I1006
sS'petunias'
p615
I5369
sS'seen'
p616
I370
sS'seem'
p617
I576
sS'leafy'
p618
I510
sS'spade'
p619
I670
sS'relatively'
p620
I1364
sS'birght'
p621
I4197
sS'strength'
p622
I2717
sS'starfish'
p623
I1748
sS'widen'
p624
I1810
sS'person'
p625
I3469
sS'crinkles'
p626
I2945
sS'snow'
p627
I1371
sS'elegance'
p628
I4576
sS'predominantly'
p629
I2329
sS'oriented'
p630
I879
sS'amny'
p631
I1675
sS'toothed'
p632
I403
sS'stimia'
p633
I3284
sS'lilypads'
p634
I3139
sS'flowera'
p635
I3547
sS'protudes'
p636
I3291
sS'matchstick'
p637
I4355
sS'crinkled'
p638
I439
sS'snowflake'
p639
I1927
sS'orangeish'
p640
I1424
sS'circles'
p641
I833
sS'even'
p642
I655
sS'uellow'
p643
I4902
sS'exactly'
p644
I3043
sS'pistins'
p645
I4117
sS'lion'
p646
I4101
sS'though'
p647
I1377
sS'spearpoint'
p648
I5036
sS'tye'
p649
I5214
sS'object'
p650
I4791
sS'phonograph'
p651
I4625
sS'trianglulary'
p652
I5302
sS'anatomy'
p653
I2259
sS'extending'
p654
I549
sS'regular'
p655
I1404
sS'mouth'
p656
I418
sS'plenty'
p657
I1614
sS'circled'
p658
I1677
sS'stemen'
p659
I2124
sS'detains'
p660
I3294
sS'ornge'
p661
I5117
sS'apex'
p662
I4841
sS'glow'
p663
I1524
sS'dupward'
p664
I2502
sS'don'
p665
I1539
sS'powderish'
p666
I4007
sS'pricky'
p667
I3337
sS'attaches'
p668
I5018
sS'flop'
p669
I2532
sS'flow'
p670
I1019
sS'dog'
p671
I4847
sS'pokes'
p672
I4982
sS'musical'
p673
I4046
sS'leaflet'
p674
I5212
sS'fingerlike'
p675
I3314
sS'points'
p676
I404
sS'veils'
p677
I5334
sS'deeply'
p678
I801
sS'pointy'
p679
I143
sS'phenomenally'
p680
I4858
sS'urple'
p681
I1759
sS'sunbeam'
p682
I4747
sS'offshoots'
p683
I2072
sS'dot'
p684
I866
sS'fussy'
p685
I3412
sS'crisscross'
p686
I5213
sS'aquatic'
p687
I1910
sS'colore'
p688
I1454
sS'colord'
p689
I1911
sS'unified'
p690
I4082
sS'insects'
p691
I2661
sS'alight'
p692
I5055
sS'random'
p693
I1438
sS'sage'
p694
I2402
sS'pat'
p695
I5263
sS'ending'
p696
I917
sS'pops'
p697
I2521
sS'colors'
p698
I280
sS'hummingbirds'
p699
I4993
sS'roselike'
p700
I4588
sS'thirds'
p701
I4654
sS'respectfully'
p702
I4907
sS'yellowing'
p703
I2079
sS'subtle'
p704
I848
sS'peddle'
p705
I1964
sS'thickness'
p706
I2300
sS'dove'
p707
I3243
sS'marvelously'
p708
I4371
sS'touches'
p709
I1410
sS'busy'
p710
I1243
sS'0outer'
p711
I4708
sS'ropunded'
p712
I2981
sS'wiggle'
p713
I4748
sS'quaint'
p714
I4001
sS'rectagular'
p715
I4000
sS'folded'
p716
I138
sS'rpunded'
p717
I2560
sS'echinacea'
p718
I3411
sS'bown'
p719
I2420
sS'bush'
p720
I778
sS'alyternating'
p721
I5232
sS'touched'
p722
I1873
sS'rich'
p723
I597
sS'frizzed'
p724
I4772
sS'folder'
p725
I3975
sS'organizes'
p726
I4268
sS'rectangle'
p727
I2401
sS'yelloow'
p728
I2225
sS'plate'
p729
I1345
sS'mixture'
p730
I914
sS'colorful'
p731
I480
sS'10'
p732
I1552
sS'air'
p733
I1827
sS'slighlty'
p734
I4575
sS'blur'
p735
I2614
sS'fodled'
p736
I2349
sS'staamen'
p737
I3841
sS'yed'
p738
I3838
sS'protectively'
p739
I3390
sS'reveling'
p740
I4688
sS'watermelon'
p741
I2059
sS'geen'
p742
I2506
sS'cushion'
p743
I4013
sS'wedding'
p744
I3133
sS'aand'
p745
I3046
sS'squarish'
p746
I5069
sS'vividly'
p747
I2253
sS'aroma'
p748
I3970
sS'net'
p749
I5340
sS'sandy'
p750
I4798
sS'runs'
p751
I2714
sS'bel'
p752
I5272
sS'greens'
p753
I1260
sS'covering'
p754
I562
sS'nicely'
p755
I1902
sS'frizzled'
p756
I4710
sS'boarder'
p757
I2568
sS'disck'
p758
I4143
sS'pinstripes'
p759
I5038
sS'patch'
p760
I338
sS'bag'
p761
I2553
sS'interspersed'
p762
I2575
sS'softly'
p763
I999
sS'col9or'
p764
I4807
sS'contrast'
p765
I773
sS'flanked'
p766
I1930
sS'eventually'
p767
I2414
sS'ban'
p768
I3760
sS'greenl'
p769
I4273
sS'fluttered'
p770
I3307
sS'steak'
p771
I5176
sS'steam'
p772
I1031
sS'ears'
p773
I2022
sS'headed'
p774
I2757
sS'fragrant'
p775
I4878
sS'splotched'
p776
I1602
sS'fair'
p777
I3054
sS'our'
p778
I3698
sS'diminutive'
p779
I3935
sS'fluffy'
p780
I329
sS'lemonade'
p781
I4799
sS'hasn'
p782
I3578
sS'richer'
p783
I5048
sS'splotches'
p784
I782
sS'intertwine'
p785
I4551
sS'projections'
p786
I1369
sS'colorand'
p787
I2758
sS'sporadic'
p788
I2541
sS'noodles'
p789
I4723
sS'orangeband'
p790
I4225
sS'best'
p791
I4168
sS'hourglass'
p792
I3137
sS'pebbles'
p793
I3540
sS'pastel'
p794
I707
sS'torned'
p795
I4362
sS'said'
p796
I3897
sS'peta'
p797
I2118
sS'species'
p798
I4263
sS'pedicure'
p799
I2609
sS'lots'
p800
I286
sS'rare'
p801
I4396
sS'away'
p802
I454
sS'sail'
p803
I4808
sS'rings'
p804
I844
sS'laarge'
p805
I2563
sS'hallow'
p806
I1893
sS'symmetric'
p807
I1928
sS'jetting'
p808
I1931
sS'pediciel'
p809
I2482
sS'tainted'
p810
I5196
sS'finger'
p811
I878
sS'pets'
p812
I1808
sS'mum'
p813
I2533
sS'drawn'
p814
I2866
sS'bellowing'
p815
I3867
sS'approach'
p816
I2085
sS'innr'
p817
I4681
sS'lazy'
p818
I3410
sS'triplet'
p819
I3936
sS'terms'
p820
I4159
sS'extend'
p821
I628
sS'rims'
p822
I1494
sS'rolled'
p823
I817
sS'cloesely'
p824
I3475
sS'fruits'
p825
I2165
sS'lapping'
p826
I1940
sS'however'
p827
I2351
sS'ij'
p828
I4675
sS'whiteish'
p829
I2726
sS'attcahed'
p830
I4429
sS'sharplybpointed'
p831
I3224
sS'cut'
p832
I3635
sS'unfold'
p833
I1795
sS'teir'
p834
I4118
sS'flowering'
p835
I1271
sS'overapping'
p836
I4280
sS'sipped'
p837
I4490
sS'inflorescence'
p838
I1241
sS'faced'
p839
I1578
sS'thredlike'
p840
I3613
sS'protect'
p841
I882
sS'layeres'
p842
I4528
sS'irregular'
p843
I423
sS'coy'
p844
I4503
sS'jelly'
p845
I3306
sS'against'
p846
I760
sS'twos'
p847
I3144
sS'players'
p848
I3016
sS'mutli'
p849
I2006
sS'cob'
p850
I1034
sS'faces'
p851
I924
sS'inwardly'
p852
I3864
sS'towarda'
p853
I4974
sS'inbeded'
p854
I3418
sS'genus'
p855
I4295
sS'tinge'
p856
I934
sS'orbs'
p857
I3313
sS'flair'
p858
I5045
sS'suggest'
p859
I5071
sS'loosed'
p860
I3726
sS'singly'
p861
I4444
sS'tone'
p862
I823
sS'tentacle'
p863
I4905
sS'spear'
p864
I1185
sS'freakish'
p865
I4714
sS'appeared'
p866
I4378
sS'had'
p867
I490
sS'gathering'
p868
I2994
sS'height'
p869
I1959
sS'flames'
p870
I2625
sS'ruffly'
p871
I1135
sS'matte'
p872
I2152
sS'ang'
p873
I4945
sS'greenleaf'
p874
I2223
sS'framework'
p875
I3184
sS'blending'
p876
I1071
sS'wider'
p877
I1330
sS'loaded'
p878
I4245
sS'panel'
p879
I5337
sS'egdes'
p880
I1992
sS'beetroot'
p881
I3513
sS'tint'
p882
I506
sS'boxy'
p883
I4025
sS'spathe'
p884
I3444
sS'seashell'
p885
I3998
sS'oepen'
p886
I4809
sS'dusting'
p887
I3758
sS'fro'
p888
I5121
sS'three'
p889
I163
sS'erect'
p890
I785
sS'quickly'
p891
I1618
sS'upcurved'
p892
I3382
sS'tine'
p893
I3524
sS'much'
p894
I742
sS'interest'
p895
I3989
sS'basic'
p896
I2628
sS'elsewere'
p897
I3668
sS'protrusions'
p898
I1055
sS'lovely'
p899
I787
sS'spongey'
p900
I4525
sS'sahped'
p901
I4730
sS'threw'
p902
I5000
sS'dots'
p903
I105
sS'life'
p904
I1814
sS'pinking'
p905
I2315
sS'deeper'
p906
I512
sS'mushroom'
p907
I1283
sS'droplets'
p908
I2544
sS'sunshine'
p909
I1249
sS'worker'
p910
I3481
sS'uncommon'
p911
I3587
sS'lift'
p912
I1434
sS'neer'
p913
I4339
sS'hollowed'
p914
I1988
sS'dotd'
p915
I2429
sS'catch'
p916
I2952
sS'deepen'
p917
I1778
sS'chili'
p918
I2308
sS'sad'
p919
I3499
sS'spin'
p920
I4571
sS'nineteen'
p921
I4387
sS'ant'
p922
I2326
sS'exception'
p923
I2324
sS'openings'
p924
I2616
sS'loosened'
p925
I4565
sS'reddish'
p926
I228
sS'whuc'
p927
I3881
sS'culrled'
p928
I4556
sS'originate'
p929
I2837
sS'n'
p930
I1562
sS'strangest'
p931
I3192
sS'rests'
p932
I2977
sS'near'
p933
I100
sS'hanes'
p934
I4409
sS'neat'
p935
I1313
sS'coalescing'
p936
I4278
sS'items'
p937
I4727
sS'surrond'
p938
I2619
sS'elaborate'
p939
I679
sS'chilling'
p940
I3748
sS'haveyellow'
p941
I2853
sS'aesthetic'
p942
I3736
sS'seven'
p943
I639
sS'pyramid'
p944
I2487
sS'stripespink'
p945
I4970
sS'stgima'
p946
I3521
sS'receprecale'
p947
I5281
sS'is'
p948
I17
sS'lanky'
p949
I4002
sS'it'
p950
I63
sS'sting'
p951
I4064
sS'ii'
p952
I4818
sS'need'
p953
I4738
sS'cant'
p954
I4423
sS'tissue'
p955
I883
sS'cone'
p956
I203
sS'exterior'
p957
I888
sS'in'
p958
I15
sS'ib'
p959
I2034
sS'ie'
p960
I3162
sS'arew'
p961
I4497
sS'if'
p962
I774
sS'grown'
p963
I1740
sS'resemblence'
p964
I3693
sS'containing'
p965
I672
sS'bottles'
p966
I4410
sS'ogether'
p967
I3960
sS'miniature'
p968
I1610
sS'furled'
p969
I2885
sS'things'
p970
I1659
sS'make'
p971
I341
sS'wound'
p972
I2460
sS'colores'
p973
I3819
sS'linked'
p974
I1423
sS'complex'
p975
I918
sS'split'
p976
I1528
sS'carnation'
p977
I1917
sS'mixtures'
p978
I4104
sS'whitened'
p979
I3138
sS'spirals'
p980
I1977
sS'stickers'
p981
I3716
sS'several'
p982
I92
sS'cellled'
p983
I3510
sS'grows'
p984
I428
sS'crevices'
p985
I4662
sS'bells'
p986
I560
sS'wheel'
p987
I354
sS'fairly'
p988
I987
sS'satellite'
p989
I594
sS'shasped'
p990
I5289
sS'du'
p991
I5200
sS'peaks'
p992
I5233
sS'spotsand'
p993
I4521
sS'springing'
p994
I1804
sS'alittle'
p995
I2322
sS'pick'
p996
I1366
sS'tops'
p997
I857
sS'differing'
p998
I2821
sS'rain'
p999
I1907
sS'hand'
p1000
I1319
sS'rufled'
p1001
I2578
sS'tanish'
p1002
I3837
sS'fuse'
p1003
I2089
sS'kin'
p1004
I2023
sS'thern'
p1005
I5243
sS'sprinkles'
p1006
I4097
sS'seamed'
p1007
I4334
sS'tune'
p1008
I4925
sS'catus'
p1009
I2471
sS'petaled'
p1010
I275
sS'hearth'
p1011
I4996
sS'wispy'
p1012
I910
sS'kept'
p1013
I3232
sS'caved'
p1014
I4632
sS'thy'
p1015
I4887
sS'flattish'
p1016
I1688
sS'thw'
p1017
I3862
sS'wisps'
p1018
I2999
sS'deooping'
p1019
I3509
sS'thr'
p1020
I3782
sS'drd'
p1021
I3515
sS'ragged'
p1022
I686
sS'hearty'
p1023
I4971
sS'reseptacle'
p1024
I4467
sS'thi'
p1025
I3767
sS'alternatky'
p1026
I3943
sS'indicative'
p1027
I3925
sS'the'
p1028
I11
sS'sultry'
p1029
I5019
sS'possesses'
p1030
I1593
sS'tha'
p1031
I1284
sS'left'
p1032
I1739
sS'sticking'
p1033
I300
sS'bellow'
p1034
I1935
sS'indigo'
p1035
I430
sS'yel'
p1036
I3958
sS'just'
p1037
I606
sS'decreasing'
p1038
I3424
sS'photo'
p1039
I977
sS'sporting'
p1040
I4486
sS'arae'
p1041
I5199
sS'thich'
p1042
I4717
sS'longish'
p1043
I2847
sS'flowwer'
p1044
I2892
sS'stigam'
p1045
I2372
sS'ya'
p1046
I5282
sS'farther'
p1047
I1781
sS'human'
p1048
I2788
sS'spherically'
p1049
I2807
sS'upturned'
p1050
I249
sS'visiible'
p1051
I3644
sS'scattering'
p1052
I4191
sS'yet'
p1053
I658
sS'braided'
p1054
I5220
sS'previous'
p1055
I4529
sS'adding'
p1056
I3225
sS'anter'
p1057
I3167
sS'unable'
p1058
I3963
sS'sunflower'
p1059
I809
sS'septal'
p1060
I4162
sS'furry'
p1061
I849
sS'royal'
p1062
I1007
sS'hae'
p1063
I4906
sS'hay'
p1064
I4247
sS'spread'
p1065
I483
sS'board'
p1066
I3493
sS'easy'
p1067
I1300
sS'arelight'
p1068
I5050
sS'has'
p1069
I7
sS'hat'
p1070
I1289
sS'hav'
p1071
I3629
sS'trimming'
p1072
I1575
sS'turquoise'
p1073
I3592
sS'layersd'
p1074
I4513
sS'inne'
p1075
I3191
sS'enlongated'
p1076
I2536
sS'mounds'
p1077
I2172
sS'bands'
p1078
I1734
sS'singe'
p1079
I2716
sS'fkower'
p1080
I5328
sS'resembling'
p1081
I850
sS'discreet'
p1082
I2370
sS'wiht'
p1083
I819
sS'roughness'
p1084
I4555
sS'background'
p1085
I734
sS'30'
p1086
I4374
sS'clustered'
p1087
I250
sS'pistel'
p1088
I1018
sS'shadow'
p1089
I3285
sS'unique'
p1090
I243
sS'burnt'
p1091
I590
sS'bushy'
p1092
I630
sS'apart'
p1093
I754
sS'oclor'
p1094
I4737
sS'ls'
p1095
I5016
sS'appearing'
p1096
I1189
sS'flappy'
p1097
I2382
sS'tapering'
p1098
I1676
sS'aanthers'
p1099
I5172
sS'nude'
p1100
I4623
sS'pistli'
p1101
I2455
sS'50'
p1102
I2468
sS'flkower'
p1103
I5251
sS'flecked'
p1104
I3064
sS'remind'
p1105
I1664
sS'willowy'
p1106
I2620
sS'fluffly'
p1107
I3566
sS'sparse'
p1108
I321
sS'night'
p1109
I2361
sS'hung'
p1110
I4440
sS'anad'
p1111
I5330
sS'pillar'
p1112
I4298
sS'canna'
p1113
I2926
sS'right'
p1114
I863
sS'old'
p1115
I2949
sS'ole'
p1116
I3222
sS'crowd'
p1117
I2650
sS'mash'
p1118
I3658
sS'crown'
p1119
I1151
sS'havarti'
p1120
I3653
sS'connective'
p1121
I3052
sS'sponge'
p1122
I2751
sS'clubs'
p1123
I3667
sS'sure'
p1124
I1998
sS'stigima'
p1125
I2330
sS'spoted'
p1126
I1023
sS'winds'
p1127
I3773
sS'thatched'
p1128
I5217
sS'trombone'
p1129
I4619
sS'alternatimg'
p1130
I2653
sS'yellowtips'
p1131
I2368
sS'blub'
p1132
I3436
sS'orchid'
p1133
I1218
sS'separately'
p1134
I168
sS'dense'
p1135
I229
sS'ruffled'
p1136
I51
sS'for'
p1137
I432
sS'bottom'
p1138
I189
sS'purple'
p1139
I18
sS'unseparated'
p1140
I2993
sS'ear'
p1141
I1817
sS'normal'
p1142
I2768
sS'flush'
p1143
I3371
sS'fibrous'
p1144
I2654
sS'everything'
p1145
I4421
sS'ruffles'
p1146
I690
sS'shapep'
p1147
I3695
sS'purprle'
p1148
I3533
sS'ruffley'
p1149
I2770
sS'shapew'
p1150
I4094
sS'purplw'
p1151
I3742
sS'christmas'
p1152
I2086
sS'displayed'
p1153
I1846
sS'entangled'
p1154
I4696
sS'cord'
p1155
I4207
sS'core'
p1156
I440
sS'curvaceous'
p1157
I3126
sS'patchs'
p1158
I2867
sS'bold'
p1159
I528
sS'peel'
p1160
I1731
sS'pedicils'
p1161
I5013
sS'corn'
p1162
I945
sS'burn'
p1163
I2777
sS'chain'
p1164
I4230
sS'graduates'
p1165
I2301
sS'narow'
p1166
I5267
sS'hss'
p1167
I4652
sS'darkness'
p1168
I3910
sS'arepink'
p1169
I1579
sS'posses'
p1170
I5140
sS'filaments'
p1171
I76
sS'peep'
p1172
I3625
sS'flappie'
p1173
I4156
sS'staman'
p1174
I1232
sS'shapedl'
p1175
I4953
sS'stipils'
p1176
I3319
sS'plug'
p1177
I3021
sS'transcends'
p1178
I4119
sS'flourished'
p1179
I3525
sS'arr'
p1180
I4736
sS'conceal'
p1181
I1315
sS'anrrow'
p1182
I4276
sS'plum'
p1183
I565
sS'petalsand'
p1184
I4021
sS'surround'
p1185
I121
sS'smillar'
p1186
I4151
sS'silk'
p1187
I4516
sS'intertwined'
p1188
I1323
sS'flourishes'
p1189
I950
sS'plus'
p1190
I2002
sS'done'
p1191
I4821
sS'lapin'
p1192
I3385
sS'connected'
p1193
I236
sS'slightly'
p1194
I110
sS'linesw'
p1195
I3621
sS'pastil'
p1196
I3182
sS'raised'
p1197
I1435
sS'contains'
p1198
I392
sS'whats'
p1199
I1770
sS'c9lor'
p1200
I4660
sS'mantle'
p1201
I4527
sS'barbs'
p1202
I5185
sS'leaflike'
p1203
I547
sS'roundd'
p1204
I2902
sS'rounde'
p1205
I1175
sS'stricks'
p1206
I5094
sS'bound'
p1207
I1978
sS'fern'
p1208
I1704
sS'down'
p1209
I149
sS'lies'
p1210
I1585
sS'samen'
p1211
I2051
sS'wrap'
p1212
I511
sS'stringing'
p1213
I3690
sS'shoots'
p1214
I2362
sS'gauzy'
p1215
I1459
sS'strangely'
p1216
I1532
sS'amidst'
p1217
I4036
sS'frazzled'
p1218
I4734
sS'deal'
p1219
I2652
sS'weathered'
p1220
I4980
sS'amazingly'
p1221
I2603
sS'support'
p1222
I1690
sS'flying'
p1223
I1826
sS'fuchsia'
p1224
I366
sS'gift'
p1225
I2674
sS'sunlight'
p1226
I1564
sS'ayers'
p1227
I4009
sS'stuck'
p1228
I1463
sS'natural'
p1229
I2731
sS'consits'
p1230
I4453
sS'way'
p1231
I687
sS'spring'
p1232
I1581
sS'lage'
p1233
I1763
sS'stmen'
p1234
I2101
sS'was'
p1235
I959
sS'surounding'
p1236
I5010
sS'happy'
p1237
I2321
sS'lowest'
p1238
I1646
sS'encasing'
p1239
I2246
sS'head'
p1240
I431
sS'tints'
p1241
I626
sS'greenand'
p1242
I3249
sS'form'
p1243
I164
sS'snowy'
p1244
I992
sS'forming'
p1245
I187
sS'becoming'
p1246
I1335
sS'6'
p1247
I659
sS'artichoke'
p1248
I1733
sS'tapper'
p1249
I5219
sS'oil'
p1250
I3421
sS'filliament'
p1251
I5326
sS'feminine'
p1252
I3272
sS'hemisphere'
p1253
I2143
sS'needles'
p1254
I1387
sS'hear'
p1255
I2293
sS'emulates'
p1256
I2693
sS'ref'
p1257
I4179
sS'true'
p1258
I1697
sS'octagan'
p1259
I4673
sS'mouthed'
p1260
I1411
sS'lilies'
p1261
I4522
sS'portions'
p1262
I1501
sS'reproductive'
p1263
I700
sS'rippling'
p1264
I2476
sS'exuberant'
p1265
I5276
sS'flowre'
p1266
I5053
sS'inside'
p1267
I107
sS'peduicel'
p1268
I4216
sS'attached'
p1269
I255
sS'coned'
p1270
I2208
sS'smasher'
p1271
I3128
sS'until'
p1272
I1324
sS'engulfed'
p1273
I3318
sS'styke'
p1274
I4941
sS'lays'
p1275
I1661
sS'smashed'
p1276
I5149
sS'unusually'
p1277
I1800
sS'panels'
p1278
I2027
sS'patcheds'
p1279
I3463
sS'stigama'
p1280
I3835
sS'adorn'
p1281
I1173
sS'trim'
p1282
I741
sS'brightly'
p1283
I369
sS'trio'
p1284
I956
sS'developing'
p1285
I4146
sS'sticks'
p1286
I1285
sS'anters'
p1287
I1974
sS'underwater'
p1288
I4546
sS'triangled'
p1289
I4376
sS'abstract'
p1290
I2718
sS'mirror'
p1291
I4919
sS'covers'
p1292
I1403
sS'sticky'
p1293
I1700
sS'togethwr'
p1294
I3512
sS'gracefully'
p1295
I5137
sS'fashioned'
p1296
I3821
sS'splotch'
p1297
I1749
sS'sprouts'
p1298
I1451
sS'floating'
p1299
I1008
sS'darke'
p1300
I3555
sS'furl'
p1301
I3116
sS'triangles'
p1302
I2338
sS'marking'
p1303
I1327
sS'colroed'
p1304
I2115
sS'outstretched'
p1305
I3185
sS'ensconce'
p1306
I5148
sS'dotted'
p1307
I471
sS'no'
p1308
I113
sS'drupes'
p1309
I3577
sS'whereas'
p1310
I2289
sS'flowrs'
p1311
I1798
sS'generally'
p1312
I944
sS'loosening'
p1313
I2809
sS'topped'
p1314
I412
sS'tis'
p1315
I1913
sS'snakes'
p1316
I2694
sS'tin'
p1317
I2474
sS'luscious'
p1318
I5028
sS'stagmen'
p1319
I3632
sS'holding'
p1320
I411
sS'tie'
p1321
I1354
sS'teello'
p1322
I4537
sS'smell'
p1323
I2796
sS'papery'
p1324
I584
sS'evergreen'
p1325
I2778
sS'ridged'
p1326
I808
sS'gynoecium'
p1327
I1329
sS'stament'
p1328
I2129
sS'football'
p1329
I1630
sS'ovaries'
p1330
I783
sS'funky'
p1331
I5205
sS'sesame'
p1332
I4351
sS'coronal'
p1333
I4703
sS'warp'
p1334
I2250
sS'ridges'
p1335
I677
sS'dappled'
p1336
I2548
sS'rolling'
p1337
I2776
sS'backdrop'
p1338
I1773
sS'flushed'
p1339
I2772
sS'thorned'
p1340
I3710
sS'purplew'
p1341
I4955
sS'congested'
p1342
I2252
sS'younger'
p1343
I1900
sS'longer'
p1344
I394
sS'standard'
p1345
I5076
sS'potato'
p1346
I3063
sS'corresponding'
p1347
I5119
sS'typically'
p1348
I4267
sS'blushing'
p1349
I2681
sS'coplor'
p1350
I4458
sS'backwars'
p1351
I3393
sS'together'
p1352
I67
sS'yellpw'
p1353
I4272
sS'beds'
p1354
I4535
sS'boyh'
p1355
I5246
sS'spiralledinto'
p1356
I3449
sS'time'
p1357
I3039
sS'push'
p1358
I3270
sS'roubnded'
p1359
I2366
sS'overturned'
p1360
I1601
sS'backward'
p1361
I798
sS'stacks'
p1362
I2917
sS'basically'
p1363
I3373
sS'dotes'
p1364
I5256
sS'arepurple'
p1365
I2018
sS'patters'
p1366
I5418
sS'pistils'
p1367
I123
sS'remarkable'
p1368
I2386
sS'camouflage'
p1369
I2704
sS'sinset'
p1370
I3954
sS'wink'
p1371
I3731
sS'varying'
p1372
I330
sS'people'
p1373
I4093
sS'atmosphere'
p1374
I4428
sS'vermilion'
p1375
I4231
sS'tendrils'
p1376
I2695
sS'leads'
p1377
I1472
sS'flexible'
p1378
I4728
sS'mild'
p1379
I2247
sS'petakls'
p1380
I1776
sS'ice'
p1381
I3679
sS'skin'
p1382
I1860
sS'oarked'
p1383
I4017
sS'strawberries'
p1384
I3930
sS'pistill'
p1385
I1079
sS'abundant'
p1386
I1762
sS'toothpick'
p1387
I1574
sS'hole'
p1388
I1506
sS'row'
p1389
I180
sS'layers'
p1390
I57
sS'maller'
p1391
I4647
sS'certainly'
p1392
I3154
sS'uneven'
p1393
I282
sS'grape'
p1394
I1726
sS'cener'
p1395
I2499
sS'antherds'
p1396
I4939
sS'laternaetly'
p1397
I3520
sS'tightle'
p1398
I4596
sS'characteristics'
p1399
I4819
sS'bordered'
p1400
I2228
sS'vey'
p1401
I4469
sS'pentagonal'
p1402
I1498
sS'flowered'
p1403
I1201
sS'suckled'
p1404
I5383
sS'ovular'
p1405
I703
sS'melon'
p1406
I1137
sS'stamena'
p1407
I2490
sS'middledark'
p1408
I3915
sS'furrows'
p1409
I4004
sS'brown'
p1410
I65
sS'protective'
p1411
I2102
sS'string'
p1412
I536
sS'broadly'
p1413
I4125
sS'depal'
p1414
I3527
sS'pisil'
p1415
I1984
sS'tends'
p1416
I4995
sS'seemingly'
p1417
I1141
sS'geometrical'
p1418
I2356
sS'stamenm'
p1419
I3828
sS'flora'
p1420
I5105
sS'redish'
p1421
I975
sS'lancelet'
p1422
I4981
sS'word'
p1423
I3501
sS'brownis'
p1424
I3400
sS'exact'
p1425
I3993
sS'duller'
p1426
I3310
sS'minute'
p1427
I2785
sS'cool'
p1428
I814
sS'unformed'
p1429
I2240
sS'dim'
p1430
I2916
sS'din'
p1431
I2417
sS'peg'
p1432
I4806
sS'nectar'
p1433
I1392
sS'trifecta'
p1434
I3428
sS'level'
p1435
I1029
sS'tear'
p1436
I671
sS'turns'
p1437
I482
sS'fragile'
p1438
I793
sS'cloudy'
p1439
I2436
sS'voluminous'
p1440
I4593
sS'leave'
p1441
I1158
sS'p'
p1442
I1009
sS'pouter'
p1443
I4753
sS'brownish'
p1444
I491
sS'leves'
p1445
I4931
sS'scaly'
p1446
I2593
sS'woven'
p1447
I1068
sS'round'
p1448
I75
sS'attracting'
p1449
I4302
sS'oustide'
p1450
I4811
sS'upper'
p1451
I434
sS'work'
p1452
I1885
sS'slower'
p1453
I2177
sS'be'
p1454
I293
sS'fingernail'
p1455
I4547
sS'unruly'
p1456
I5138
sS'okay'
p1457
I4361
sS'whimsical'
p1458
I3140
sS'steaks'
p1459
I4646
sS'draping'
p1460
I1546
sS'widened'
p1461
I5192
sS'pedicil'
p1462
I1566
sS'recepticle'
p1463
I2087
sS'dried'
p1464
I2185
sS'creasing'
p1465
I4084
sS'noticeably'
p1466
I2539
sS'petalled'
p1467
I1256
sS'pedicles'
p1468
I2538
sS'parachuting'
p1469
I3470
sS'pointier'
p1470
I5077
sS'adds'
p1471
I3987
sS'appear'
p1472
I376
sS'filler'
p1473
I3517
sS'pistels'
p1474
I1854
sS'blotches'
p1475
I843
sS'culster'
p1476
I3534
sS'mall'
p1477
I4234
sS'shares'
p1478
I2914
sS'uniform'
p1479
I932
sS'reminiscent'
p1480
I1477
sS'bunchy'
p1481
I3563
sS'opink'
p1482
I3865
sS'beard'
p1483
I4405
sS'satelite'
p1484
I4053
sS'goes'
p1485
I1014
sS'sapels'
p1486
I5377
sS'nine'
p1487
I1925
sS'falling'
p1488
I1869
sS'curled'
p1489
I94
sS'arger'
p1490
I4149
sS'blotched'
p1491
I3061
sS'filled'
p1492
I697
sS'hairy'
p1493
I653
sS'supporting'
p1494
I752
sS'wrinkling'
p1495
I2959
sS'explosion'
p1496
I3977
sS'poitned'
p1497
I2656
sS'nearer'
p1498
I2231
sS'mussels'
p1499
I5039
sS'hairs'
p1500
I527
sS'filliaments'
p1501
I3914
sS'pistals'
p1502
I1302
sS'french'
p1503
I4042
sS'bi'
p1504
I3427
sS'water'
p1505
I409
sS'witch'
p1506
I5139
sS'groups'
p1507
I873
sS'alone'
p1508
I2534
sS'sepeal'
p1509
I5122
sS'along'
p1510
I141
sS'rubbery'
p1511
I1783
sS'appears'
p1512
I435
sS'change'
p1513
I712
sS'box'
p1514
I3642
sS'pedals'
p1515
I98
sS'floweer'
p1516
I2634
sS'arc'
p1517
I2108
sS'noticeable'
p1518
I894
sS'ot'
p1519
I4277
sS'brilliant'
p1520
I572
sS'pearls'
p1521
I4183
sS'hadn'
p1522
I4564
sS'blotch'
p1523
I2618
sS'step'
p1524
I2606
sS'bow'
p1525
I1549
sS'longe'
p1526
I5171
sS'spheres'
p1527
I2167
sS'sprouted'
p1528
I3189
sS'fillament'
p1529
I4350
sS'puirple'
p1530
I2527
sS'pistiland'
p1531
I4485
sS'usually'
p1532
I2347
sS'weird'
p1533
I1066
sS'arecapsule'
p1534
I3573
sS'emerge'
p1535
I1373
sS'breathtaking'
p1536
I5216
sS'crimped'
p1537
I2206
sS'love'
p1538
I1044
sS'extra'
p1539
I1694
sS'radish'
p1540
I4994
sS'threes'
p1541
I2376
sS'marked'
p1542
I1668
sS'plumb'
p1543
I1604
sS'graduated'
p1544
I1899
sS'residual'
p1545
I4328
sS'stepal'
p1546
I4365
sS'puffed'
p1547
I3101
sS'slate'
p1548
I3705
sS'blck'
p1549
I4319
sS'scam'
p1550
I4682
sS'linesa'
p1551
I4471
sS'smallish'
p1552
I3051
sS'whiet'
p1553
I1432
sS'outter'
p1554
I4569
sS'stingy'
p1555
I1317
sS'klarger'
p1556
I3000
sS'bended'
p1557
I2422
sS'bulbs'
p1558
I979
sS'raspberry'
p1559
I2583
sS'vivid'
p1560
I361
sS'working'
p1561
I2517
sS'lose'
p1562
I3264
sS'super'
p1563
I2645
sS'andg'
p1564
I3387
sS'thre'
p1565
I3356
sS'merged'
p1566
I4611
sS'tightly'
p1567
I283
sS'by'
p1568
I71
sS'insides'
p1569
I485
sS'creamy'
p1570
I541
sS'live'
p1571
I4518
sS'planted'
p1572
I3732
sS'wonderfully'
p1573
I3110
sS'pursed'
p1574
I3531
sS'anthrs'
p1575
I3165
sS'ripening'
p1576
I3938
sS'thru'
p1577
I2019
sS'sunburst'
p1578
I1210
sS'ands'
p1579
I3093
sS'shinny'
p1580
I4828
sS'blotchy'
p1581
I3066
sS'encompassed'
p1582
I4782
sS'mkddle'
p1583
I4322
sS'continue'
p1584
I4504
sS'riot'
p1585
I3882
sS'peices'
p1586
I3198
sS'<S>'
p1587
I1
sS'share'
p1588
I5169
sS'apparent'
p1589
I1551
sS'envelope'
p1590
I3649
sS'cololr'
p1591
I3161
sS'uppermost'
p1592
I2968
sS'marbled'
p1593
I2696
sS'extruding'
p1594
I1815
sS'rigid'
p1595
I1048
sS'putter'
p1596
I4552
sS'olive'
p1597
I868
sS'externally'
p1598
I5106
sS'given'
p1599
I4227
sS'pediceil'
p1600
I3795
sS'clumps'
p1601
I1146
sS'wrinkley'
p1602
I4447
sS'fly'
p1603
I1926
sS'flares'
p1604
I1943
sS'edible'
p1605
I3035
sS'ibn'
p1606
I2290
sS'alternatlly'
p1607
I5253
sS'originally'
p1608
I3650
sS'cap'
p1609
I2557
sS'soul'
p1610
I5058
sS'glued'
p1611
I3538
sS'grasses'
p1612
I3074
sS'lsthe'
p1613
I3432
sS'gathers'
p1614
I2469
sS'can'
p1615
I438
sS'stature'
p1616
I5014
sS'growing'
p1617
I390
sS'making'
p1618
I674
sS'metal'
p1619
I3048
sS'centrally'
p1620
I2915
sS'specie'
p1621
I3717
sS'coral'
p1622
I385
sS'streak'
p1623
I662
sS'heart'
p1624
I212
sS'crazy'
p1625
I1908
sS'cricle'
p1626
I3302
sS'grassy'
p1627
I4357
sS'figure'
p1628
I1953
sS'frogs'
p1629
I3479
sS'altrnating'
p1630
I3548
sS'awesome'
p1631
I1480
sS'braod'
p1632
I4998
sS'laternatly'
p1633
I3955
sS'uyellow'
p1634
I3703
sS'parachute'
p1635
I4341
sS'heard'
p1636
I4825
sS'tinted'
p1637
I694
sS'narrows'
p1638
I4656
sS'dropped'
p1639
I1624
sS'hides'
p1640
I2109
sS'pond'
p1641
I2190
sS'whirls'
p1642
I4582
sS'spanning'
p1643
I3036
sS'distinguishable'
p1644
I1831
sS'occur'
p1645
I1843
sS'pink'
p1646
I16
sS'sgaped'
p1647
I4648
sS'rays'
p1648
I1555
sS'protrustions'
p1649
I3714
sS'winter'
p1650
I3712
sS'trumple'
p1651
I3753
sS'crystallized'
p1652
I2470
sS'divided'
p1653
I1680
sS'spreads'
p1654
I1866
sS'poking'
p1655
I1412
sS'innumerable'
p1656
I3639
sS'pine'
p1657
I673
sS'snapdragon'
p1658
I3290
sS'1'
p1659
I1505
sS'lobe'
p1660
I1889
sS'piny'
p1661
I3089
sS'flank'
p1662
I2381
sS'contrasts'
p1663
I1607
sS'sparingly'
p1664
I5198
sS'pure'
p1665
I353
sS'elephant'
p1666
I2021
sS'pins'
p1667
I1691
sS'coiled'
p1668
I2805
sS'outlining'
p1669
I1766
sS'edhges'
p1670
I2666
sS'information'
p1671
I5082
sS'may'
p1672
I1257
sS'rouned'
p1673
I5345
sS'cental'
p1674
I3968
sS'spot'
p1675
I501
sS'wiggly'
p1676
I2272
sS'secluded'
p1677
I3765
sS'4th'
p1678
I2374
sS'tipped'
p1679
I221
sS'speckling'
p1680
I1987
sS'hombre'
p1681
I4107
sS'scalloped'
p1682
I753
sS'such'
p1683
I822
sS'flourish'
p1684
I2114
sS'grow'
p1685
I334
sS'lifting'
p1686
I1553
sS'man'
p1687
I1269
sS'stress'
p1688
I3945
sS'branches'
p1689
I1150
sS'outline'
p1690
I727
sS'joint'
p1691
I1460
sS'unfolded'
p1692
I4548
sS'maybe'
p1693
I1803
sS'trumpets'
p1694
I1747
sS'scans'
p1695
I5067
sS'fronds'
p1696
I3075
sS'corona'
p1697
I1419
sS'daisies'
p1698
I2948
sS'q'
p1699
I3749
sS'cascade'
p1700
I1898
sS'thorny'
p1701
I585
sS'branched'
p1702
I2201
sS'so'
p1703
I269
sS'progressively'
p1704
I1729
sS'underneaths'
p1705
I4195
sS'swollen'
p1706
I2737
sS'thorns'
p1707
I841
sS'tall'
p1708
I198
sS'sat'
p1709
I4043
sS'pulled'
p1710
I2274
sS'crumple'
p1711
I2668
sS'framing'
p1712
I1497
sS'cute'
p1713
I2576
sS'freckles'
p1714
I2045
sS'pointed'
p1715
I44
sS'coloerd'
p1716
I5293
sS'mainly'
p1717
I1147
sS'canary'
p1718
I971
sS'copious'
p1719
I2671
sS'colo'
p1720
I1254
sS'stile'
p1721
I1479
sS'thinner'
p1722
I1437
sS'flayed'
p1723
I2997
sS'beauful'
p1724
I3426
sS'pitch'
p1725
I2858
sS'extenede'
p1726
I4762
sS'antgers'
p1727
I3750
sS'cold'
p1728
I2648
sS'still'
p1729
I1395
sS'pointer'
p1730
I3496
sS'birds'
p1731
I2054
sS'freckled'
p1732
I2130
sS'solitary'
p1733
I2590
sS'ovals'
p1734
I714
sS'conjunction'
p1735
I4666
sS'group'
p1736
I200
sS'rosette'
p1737
I2346
sS'curly'
p1738
I267
sS'saffron'
p1739
I3916
sS'warps'
p1740
I2562
sS'interesting'
p1741
I596
sS'torn'
p1742
I3707
sS'curls'
p1743
I717
sS'glowing'
p1744
I1530
sS'whittish'
p1745
I2309
sS'shaping'
p1746
I4098
sS'forms'
p1747
I730
sS'platform'
p1748
I3599
sS'occasionally'
p1749
I3940
sS'differentiating'
p1750
I3729
sS'constitutes'
p1751
I3340
sS'tipps'
p1752
I5374
sS'sptoted'
p1753
I3491
sS'main'
p1754
I108
sS'flexed'
p1755
I3437
sS'cornstalk'
p1756
I3459
sS'gate'
p1757
I3611
sS'roses'
p1758
I2672
sS'non'
p1759
I931
sS'float'
p1760
I1548
sS'cling'
p1761
I4293
sS'tucked'
p1762
I2179
sS'starry'
p1763
I2919
sS'matches'
p1764
I1582
sS'squigley'
p1765
I4777
sS'underneath'
p1766
I347
sS'touching'
p1767
I1523
sS'markings'
p1768
I284
sS'half'
p1769
I637
sS'not'
p1770
I333
sS'curlde'
p1771
I3768
sS'feathered'
p1772
I1572
sS'patter'
p1773
I2584
sS'nor'
p1774
I1407
sS'possess'
p1775
I1382
sS'layering'
p1776
I1757
sS'organ'
p1777
I4115
sS'streaks'
p1778
I322
sS'corners'
p1779
I1436
sS'drop'
p1780
I719
sS'sepal'
p1781
I88
sS'veiny'
p1782
I693
sS'nodding'
p1783
I2581
sS'jellyfish'
p1784
I3278
sS'shy'
p1785
I5181
sS'veins'
p1786
I86
sS'entirely'
p1787
I989
sS'surrrounding'
p1788
I5386
sS'capped'
p1789
I2426
sS'individually'
p1790
I1456
sS'nick'
p1791
I3439
sS'bicycle'
p1792
I3013
sS'square'
p1793
I1233
sS'bunhed'
p1794
I4801
sS'linings'
p1795
I4634
sS'bursting'
p1796
I1326
sS'petalsare'
p1797
I3809
sS'fluted'
p1798
I739
sS'ed'
p1799
I1629
sS'kand'
p1800
I3329
sS'growths'
p1801
I2171
sS'ea'
p1802
I4317
sS'concentration'
p1803
I5098
sS'theedges'
p1804
I2940
sS'catching'
p1805
I1453
sS'zebra'
p1806
I5239
sS'skinnye'
p1807
I4989
sS'sox'
p1808
I4418
sS'cirlce'
p1809
I3626
sS'ccenter'
p1810
I4349
sS'spiking'
p1811
I2145
sS'togeher'
p1812
I3962
sS'aiming'
p1813
I3602
sS'er'
p1814
I2535
sS'emerges'
p1815
I1452
sS'shown'
p1816
I84
sS'varigated'
p1817
I4123
sS'mouths'
p1818
I907
sS'flowerhas'
p1819
I3781
sS'space'
p1820
I1190
sS'dtoner'
p1821
I4384
sS'iwth'
p1822
I2421
sS'raggedly'
p1823
I4909
sS'squared'
p1824
I1631
sS'nner'
p1825
I3206
sS'purole'
p1826
I2992
sS'looking'
p1827
I197
sS'mess'
p1828
I5188
sS'contained'
p1829
I2011
sS'exploding'
p1830
I1865
sS'showy'
p1831
I1447
sS'cobb'
p1832
I2139
sS'drapy'
p1833
I3696
sS'ble'
p1834
I3585
sS'formula'
p1835
I4065
sS'squares'
p1836
I2586
sS'drab'
p1837
I4265
sS'viable'
p1838
I2350
sS'shows'
p1839
I1109
sS'clover'
p1840
I929
sS'complimented'
p1841
I3017
sS'blossiming'
p1842
I4793
sS'octopus'
p1843
I2041
sS'mist'
p1844
I4621
sS'sideways'
p1845
I1399
sS'envelop'
p1846
I4561
sS'fuschia'
p1847
I806
sS'quite'
p1848
I698
sS'intruding'
p1849
I3645
sS'bumps'
p1850
I2936
sS'petalsa'
p1851
I1674
sS'complicated'
p1852
I2050
sS'colred'
p1853
I3624
sS'besides'
p1854
I2782
sS'bumpy'
p1855
I1026
sS'pots'
p1856
I4491
sS'ore'
p1857
I2304
sS'orb'
p1858
I1455
sS'arge'
p1859
I3814
sS'ora'
p1860
I4248
sS'waxy'
p1861
I285
sS'tangles'
p1862
I4476
sS'couldn'
p1863
I3711
sS'arelarger'
p1864
I2712
sS'flare'
p1865
I953
sS'transition'
p1866
I1120
sS'punk'
p1867
I1282
sS'psitils'
p1868
I3169
sS'british'
p1869
I3283
sS'motion'
p1870
I2162
sS'thing'
p1871
I466
sS'butterflies'
p1872
I2017
sS'fluffed'
p1873
I5151
sS'place'
p1874
I1906
sS'massive'
p1875
I1286
sS'stuff'
p1876
I2905
sS'protuberance'
p1877
I4307
sS'domed'
p1878
I1474
sS'lightish'
p1879
I2237
sS'think'
p1880
I484
sS'first'
p1881
I1475
sS'exotic'
p1882
I640
sS'monochromatic'
p1883
I2766
sS'wad'
p1884
I4562
sS'receiving'
p1885
I5190
sS'polynesian'
p1886
I4936
sS'symmetry'
p1887
I1075
sS'striking'
p1888
I847
sS'clumped'
p1889
I964
sS'waves'
p1890
I4999
sS'ong'
p1891
I4846
sS'withwhite'
p1892
I4866
sS'comprised'
p1893
I683
sS'clumsy'
p1894
I986
sS'inshape'
p1895
I4139
sS'ptlas'
p1896
I2799
sS'directly'
p1897
I1024
sS'spanish'
p1898
I3195
sS'croup'
p1899
I4238
sS'vunerable'
p1900
I4431
sS'array'
p1901
I583
sS'tame'
p1902
I4514
sS'open'
p1903
I258
sS'angular'
p1904
I1236
sS'size'
p1905
I368
sS'peddles'
p1906
I701
sS'little'
p1907
I271
sS'sheet'
p1908
I1985
sS'folk'
p1909
I4917
sS'formulates'
p1910
I2966
sS'width'
p1911
I1587
sS'purpledots'
p1912
I5265
sS'arch'
p1913
I2359
sS'earthy'
p1914
I2313
sS'plastic'
p1915
I1509
sS'indicate'
p1916
I5227
sS'checker'
p1917
I2585
sS'2'
p1918
I770
sS'tell'
p1919
I1397
sS'fiery'
p1920
I1297
sS'peddled'
p1921
I2001
sS'runnings'
p1922
I4664
sS'white'
p1923
I14
sS'structures'
p1924
I838
sS'configured'
p1925
I1888
sS'sheen'
p1926
I3027
sS'gives'
p1927
I1220
sS'slashes'
p1928
I3417
sS'hue'
p1929
I356
sS'eyes'
p1930
I1462
sS'coloor'
p1931
I3296
sS'mostly'
p1932
I190
sS'that'
p1933
I12
sS'floppy'
p1934
I419
sS'streaked'
p1935
I1171
sS'continuous'
p1936
I779
sS'flopped'
p1937
I2071
sS'uper'
p1938
I3536
sS'transverse'
p1939
I3866
sS'flowery'
p1940
I222
sS'pnk'
p1941
I1765
sS'androecium'
p1942
I1879
sS'clutching'
p1943
I5342
sS'scalped'
p1944
I3872
sS'squiggles'
p1945
I4739
sS'laternately'
p1946
I1537
sS'flowers'
p1947
I49
sS'than'
p1948
I551
sS'flowerw'
p1949
I1665
sS'wide'
p1950
I66
sS'13'
p1951
I4312
sS'rugged'
p1952
I1115
sS'14'
p1953
I4324
sS'17'
p1954
I3783
sS'16'
p1955
I3395
sS'notches'
p1956
I1350
sS'singularly'
p1957
I4024
sS'crowded'
p1958
I1611
sS'intensity'
p1959
I1890
sS'ting'
p1960
I4326
sS'cneter'
p1961
I1529
sS'showcase'
p1962
I3316
sS'withpatches'
p1963
I5060
sS'protected'
p1964
I2232
sS'glossy'
p1965
I668
sS'stammen'
p1966
I1252
sS'were'
p1967
I1194
sS'stanem'
p1968
I2797
sS'lillies'
p1969
I3414
sS'gigantic'
p1970
I4927
sS'puddy'
p1971
I4839
sS'notched'
p1972
I876
sS'tricolored'
p1973
I2287
sS'and'
p1974
I5
sS'ane'
p1975
I3276
sS'anf'
p1976
I2612
sS'encases'
p1977
I2713
sS'lillipad'
p1978
I3991
sS'stubby'
p1979
I796
sS'angel'
p1980
I2432
sS'sagging'
p1981
I3500
sS'fromt'
p1982
I5033
sS'quirky'
p1983
I4750
sS'turned'
p1984
I458
sS'areyellow'
p1985
I1849
sS'dash'
p1986
I1872
sS'winding'
p1987
I2754
sS'say'
p1988
I3389
sS'medium'
p1989
I288
sS'camouflages'
p1990
I4882
sS'buried'
p1991
I2282
sS'ans'
p1992
I1417
sS'monochrome'
p1993
I2412
sS'rainwater'
p1994
I3551
sS'saw'
p1995
I1598
sS'any'
p1996
I855
sS'loke'
p1997
I3323
sS'foled'
p1998
I1760
sS'squat'
p1999
I2415
sS'pedtals'
p2000
I1851
sS'elongating'
p2001
I3870
sS'tulip'
p2002
I1644
sS'inspired'
p2003
I3196
sS'downwards'
p2004
I372
sS'doused'
p2005
I4744
sS'cent'
p2006
I3441
sS'note'
p2007
I3246
sS'extremities'
p2008
I5088
sS'thecenter'
p2009
I2859
sS'take'
p2010
I1563
sS'opurple'
p2011
I3738
sS'tinty'
p2012
I4288
sS'interior'
p2013
I357
sS'upside'
p2014
I535
sS'blunt'
p2015
I2890
sS'dips'
p2016
I2291
sS'butterfly'
p2017
I794
sS'wilted'
p2018
I307
sS'begin'
p2019
I1275
sS'threadlike'
p2020
I1698
sS'multiple'
p2021
I142
sS'pail'
p2022
I2540
sS'opposite'
p2023
I1433
sS'bery'
p2024
I2647
sS'neatly'
p2025
I2528
sS'shark'
p2026
I3720
sS'falls'
p2027
I3402
sS'skinner'
p2028
I4760
sS'sheets'
p2029
I4439
sS'successive'
p2030
I5321
sS'pair'
p2031
I1569
sS'vibrancy'
p2032
I4311
sS'cardinal'
p2033
I4177
sS'littering'
p2034
I5254
sS'uprising'
p2035
I5057
sS'pecidel'
p2036
I2795
sS'greyish'
p2037
I1503
sS'pencils'
p2038
I1958
sS'picture'
p2039
I174
sS'pathes'
p2040
I3747
sS'sall'
p2041
I5290
sS'largish'
p2042
I2939
sS'smller'
p2043
I4383
sS'stigmas'
p2044
I309
sS'later'
p2045
I3006
sS'pores'
p2046
I4815
sS'tooth'
p2047
I968
sS'beaded'
p2048
I3305
sS'script'
p2049
I3617
sS'virtually'
p2050
I5024
sS'sunset'
p2051
I2032
sS'wind'
p2052
I1751
sS'reed'
p2053
I3062
sS'dispersed'
p2054
I2065
sS'sigma'
p2055
I1159
sS'accented'
p2056
I1037
sS'quantity'
p2057
I2491
sS'slope'
p2058
I3076
sS'perch'
p2059
I2074
sS'drastically'
p2060
I2451
sS'spaced'
p2061
I526
sS'cherry'
p2062
I2243
sS'show'
p2063
I981
sS'lotus'
p2064
I1010
sS'altrnatlyshaped'
p2065
I5314
sS'purpple'
p2066
I4752
sS'funded'
p2067
I3136
sS'contemporary'
p2068
I3452
sS'trupet'
p2069
I4342
sS'eouter'
p2070
I3730
sS'bright'
p2071
I31
sS'spaces'
p2072
I4187
sS'wirh'
p2073
I5142
sS'rpuinded'
p2074
I4138
sS'flack'
p2075
I3833
sS'corner'
p2076
I4169
sS'htwisted'
p2077
I4890
sS'pisitl'
p2078
I1825
sS'crane'
p2079
I5203
sS'ground'
p2080
I460
sS'protrusion'
p2081
I2211
sS'slow'
p2082
I4877
sS'prominet'
p2083
I1645
sS'brigh'
p2084
I5305
sS'stair'
p2085
I5223
sS'waxish'
p2086
I3701
sS'stained'
p2087
I1921
sS'proportion'
p2088
I3130
sS'outside'
p2089
I220
sS'texture'
p2090
I218
sS'stains'
p2091
I1916
sS'only'
p2092
I264
sS'going'
p2093
I457
sS'black'
p2094
I73
sS'essence'
p2095
I3483
sS'tamens'
p2096
I2646
sS'brigt'
p2097
I4566
sS'stain'
p2098
I5035
sS'yelloiw'
p2099
I3108
sS'plums'
p2100
I3494
sS'pumpkin'
p2101
I1641
sS'bridge'
p2102
I4172
sS'bleed'
p2103
I3860
sS'get'
p2104
I304
sS'orang'
p2105
I1774
sS'lighten'
p2106
I1655
sS'diamonds'
p2107
I2872
sS'overys'
p2108
I4954
sS'se0pals'
p2109
I3651
sS'cuplike'
p2110
I2744
sS'nearly'
p2111
I688
sS'lighter'
p2112
I224
sS'distinctly'
p2113
I1368
sS'cylinders'
p2114
I3541
sS'symmetrically'
p2115
I1163
sS'auburn'
p2116
I2525
sS'event'
p2117
I4870
sS'antler'
p2118
I3112
sS'blends'
p2119
I1567
sS'secondary'
p2120
I2504
sS'closure'
p2121
I708
sS'reveal'
p2122
I958
sS'identifiable'
p2123
I5218
sS'flecks'
p2124
I1871
sS'artist'
p2125
I4133
sS'leather'
p2126
I1527
sS'tofether'
p2127
I3674
sS'versions'
p2128
I3784
sS'interwoven'
p2129
I2191
sS'morning'
p2130
I1706
sS'naked'
p2131
I2531
sS'source'
p2132
I3713
sS'characteristic'
p2133
I2904
sS'uncover'
p2134
I4257
sS'die'
p2135
I5147
sS'marred'
p2136
I3216
sS'where'
p2137
I360
sS'fuzzing'
p2138
I5245
sS'closly'
p2139
I4018
sS'kernel'
p2140
I3507
sS'rorschach'
p2141
I5090
sS'synonymous'
p2142
I4389
sS'burst'
p2143
I904
sS'zigzag'
p2144
I3793
sS'screwed'
p2145
I4721
sS'innards'
p2146
I1918
sS'fanned'
p2147
I1129
sS'relative'
p2148
I2934
sS'pedecel'
p2149
I4297
sS'asymmetrically'
p2150
I5062
sS'us'
p2151
I2774
sS'flatly'
p2152
I5097
sS'stigma'
p2153
I32
sS'zygomorphic'
p2154
I2550
sS'sport'
p2155
I3084
sS'diagonally'
p2156
I3523
sS'surfaces'
p2157
I1471
sS'radiates'
p2158
I2822
sS'suspects'
p2159
I3879
sS'furred'
p2160
I2622
sS'paired'
p2161
I3261
sS'ways'
p2162
I1838
sS'pinik'
p2163
I3791
sS'ropounded'
p2164
I5358
sS'circulating'
p2165
I5001
sS'teacup'
p2166
I1652
sS'3'
p2167
I603
sS'un'
p2168
I4669
sS'complexion'
p2169
I4499
sS'between'
p2170
I557
sS'geometric'
p2171
I1761
sS'buhsy'
p2172
I4445
sS'across'
p2173
I951
sS'oversized'
p2174
I2879
sS'checkered'
p2175
I947
sS'sepla'
p2176
I3209
sS'brugt'
p2177
I3160
sS'vertical'
p2178
I230
sS'trace'
p2179
I4392
sS'style'
p2180
I129
sS'prickles'
p2181
I3335
sS'dome'
p2182
I525
sS'guitar'
p2183
I2790
sS'dip'
p2184
I2848
sS'densely'
p2185
I517
sS'peached'
p2186
I5408
sS'tub'
p2187
I3565
sS'comb'
p2188
I1336
sS'come'
p2189
I399
sS'concentrated'
p2190
I1692
sS'corals'
p2191
I5170
sS'circumference'
p2192
I2410
sS'discernible'
p2193
I2318
sS'resides'
p2194
I2883
sS'stima'
p2195
I3438
sS'azre'
p2196
I4285
sS'many'
p2197
I47
sS'region'
p2198
I465
sS'thickly'
p2199
I1296
sS'blasts'
p2200
I4659
sS'ine'
p2201
I4771
sS's'
p2202
I146
sS'berry'
p2203
I1206
sS'shpae'
p2204
I1708
sS'oranage'
p2205
I4466
sS'wheels'
p2206
I2662
sS'flded'
p2207
I5066
sS'comes'
p2208
I864
sS'nearby'
p2209
I3746
sS'runded'
p2210
I5095
sS'among'
p2211
I967
sS'vibrantly'
p2212
I2310
sS'cornered'
p2213
I4609
sS'pruple'
p2214
I1133
sS'extravagantly'
p2215
I4435
sS'color'
p2216
I20
sS'avocado'
p2217
I3605
sS'pot'
p2218
I2743
sS'furs'
p2219
I3350
sS'pop'
p2220
I1864
sS'polkda'
p2221
I5225
sS'twin'
p2222
I2804
sS'pom'
p2223
I725
sS'blackened'
p2224
I3244
sS'strikingly'
p2225
I4323
sS'pierce'
p2226
I3482
sS'pod'
p2227
I651
sS'imn'
p2228
I5008
sS'boat'
p2229
I2745
sS'coloe'
p2230
I5367
sS'centralized'
p2231
I5378
sS'late'
p2232
I4391
sS'unopened'
p2233
I1251
sS'alternayely'
p2234
I3280
sS'folage'
p2235
I3404
sS'stretch'
p2236
I2066
sS'umber'
p2237
I2891
sS'classic'
p2238
I2932
sS'phallic'
p2239
I5401
sS'spottednear'
p2240
I3584
sS'mark'
p2241
I2192
sS'tropical'
p2242
I523
sS'trie'
p2243
I5292
sS'flant'
p2244
I3529
sS'spoons'
p2245
I3018
sS'combined'
p2246
I2257
sS'yelllow'
p2247
I1372
sS'reflective'
p2248
I5379
sS'featuring'
p2249
I939
sS'clusture'
p2250
I3858
sS'hardly'
p2251
I2273
sS'flowerwith'
p2252
I3912
sS'differently'
p2253
I2234
sS'peaking'
p2254
I2148
sS'direction'
p2255
I856
sS'shirts'
p2256
I4102
sS'lanes'
p2257
I3880
sS'stema'
p2258
I2991
sS'juts'
p2259
I4930
sS'satamen'
p2260
I4005
sS'formed'
p2261
I691
sS'hits'
p2262
I4622
sS'prtals'
p2263
I4743
sS'tiger'
p2264
I1299
sS'photos'
p2265
I5240
sS'indents'
p2266
I2284
sS'dramatic'
p2267
I1628
sS'withlager'
p2268
I5128
sS'external'
p2269
I2987
sS'stems'
p2270
I270
sS'coloed'
p2271
I3665
sS'obscuring'
p2272
I1360
sS'ruby'
p2273
I2230
sS'bluebpetals'
p2274
I3586
sS'those'
p2275
I1246
sS'countless'
p2276
I2040
sS'shaft'
p2277
I3542
sS'stacked'
p2278
I324
sS'lavendar'
p2279
I869
sS'these'
p2280
I97
sS'isolated'
p2281
I5338
sS'mount'
p2282
I2655
sS'cupping'
p2283
I1130
sS'onebwhite'
p2284
I4624
sS'premature'
p2285
I4201
sS'cast'
p2286
I4536
sS'ggreen'
p2287
I2552
sS'alternaetly'
p2288
I2613
sS'furthermost'
p2289
I3840
sS'imner'
p2290
I4543
sS'mound'
p2291
I448
sS'overlaying'
p2292
I4103
sS'margin'
p2293
I2461
sS'interconnected'
p2294
I1162
sS'ein'
p2295
I2398
sS'twisty'
p2296
I2569
sS'colopred'
p2297
I5026
sS'orientation'
p2298
I1385
sS'zenith'
p2299
I5021
sS'toothy'
p2300
I1375
sS'pinka'
p2301
I3666
sS'soil'
p2302
I2198
sS'twists'
p2303
I2559
sS'mill'
p2304
I4859
sS'coffee'
p2305
I3174
sS'pinky'
p2306
I5371
sS'middle'
p2307
I78
sS'tiny'
p2308
I139
sS'embrace'
p2309
I2974
sS'limping'
p2310
I3486
sS'meets'
p2311
I2566
sS'brod'
p2312
I2434
sS'pinks'
p2313
I1303
sS'petunia'
p2314
I2838
sS'receptacle'
p2315
I216
sS'awhile'
p2316
I2454
sS'iside'
p2317
I4961
sS'different'
p2318
I227
sS'droppping'
p2319
I4325
sS'develop'
p2320
I2486
sS'harsh'
p2321
I2098
sS'etc'
p2322
I2815
sS'circularly'
p2323
I4705
sS'coloreed'
p2324
I4891
sS'illuminated'
p2325
I4553
sS'eggshell'
p2326
I2748
sS'spiraling'
p2327
I567
sS'fewer'
p2328
I1840
sS'same'
p2329
I340
sS'lamp'
p2330
I2394
sS'everyside'
p2331
I5046
sS'ursela'
p2332
I4718
sS'pad'
p2333
I1030
sS'lith'
p2334
I4616
sS'noticeabley'
p2335
I3885
sS'lite'
p2336
I1627
sS'hite'
p2337
I4498
sS'stepped'
p2338
I3085
sS'fllaments'
p2339
I4480
sS'daubs'
p2340
I3559
sS'mane'
p2341
I2285
sS'pettles'
p2342
I3544
sS'oin'
p2343
I1993
sS'extended'
p2344
I1065
sS'edged'
p2345
I359
sS'peto'
p2346
I4173
sS'closest'
p2347
I885
sS'nest'
p2348
I1499
sS'flexes'
p2349
I1430
sS'weed'
p2350
I1857
sS'anthaers'
p2351
I3288
sS'nand'
p2352
I5352
sS'running'
p2353
I375
sS'edges'
p2354
I38
sS'delicate'
p2355
I172
sS'statue'
p2356
I4756
sS'indside'
p2357
I4889
sS'changing'
p2358
I997
sS'cheery'
p2359
I1942
sS'discernable'
p2360
I2005
sS'totally'
p2361
I2241
sS'hummingbird'
p2362
I3227
sS'break'
p2363
I1901
sS'ruffling'
p2364
I1005
sS'nad'
p2365
I1393
sS'ballooning'
p2366
I3265
sS'largely'
p2367
I1753
sS'tsamens'
p2368
I3327
sS'bodied'
p2369
I1936
sS'eerie'
p2370
I3755
sS'roughly'
p2371
I3065
sS'amounts'
p2372
I1686
sS'without'
p2373
I1343
sS'flakes'
p2374
I3562
sS'grinned'
p2375
I3854
sS'bottle'
p2376
I1863
sS'deflated'
p2377
I5074
sS'vomit'
p2378
I4057
sS'grounds'
p2379
I3857
sS'</S>'
p2380
I2
sS'dimension'
p2381
I3988
sS'bodies'
p2382
I2236
sS'effects'
p2383
I3557
sS'alfalfa'
p2384
I4208
sS'summer'
p2385
I2791
sS'5he'
p2386
I3241
sS'being'
p2387
I401
sS'nd'
p2388
I875
sS'emerald'
p2389
I3490
sS'weeds'
p2390
I5353
sS'neon'
p2391
I896
sS'crepe'
p2392
I2711
sS'rest'
p2393
I695
sS'imprint'
p2394
I937
sS'foot'
p2395
I4985
sS'violent'
p2396
I2887
sS'handed'
p2397
I2488
sS'clor'
p2398
I1176
sS'touch'
p2399
I629
sS'sppotd'
p2400
I5421
sS'bade'
p2401
I5052
sS'satin'
p2402
I1801
sS'guides'
p2403
I1874
sS'multiples'
p2404
I2221
sS'halfway'
p2405
I1191
sS'blow'
p2406
I3803
sS'overlapped'
p2407
I657
sS'sixteen'
p2408
I4313
sS'dipped'
p2409
I2567
sS'widest'
p2410
I2876
sS'hint'
p2411
I507
sS'layerd'
p2412
I2894
sS'rose'
p2413
I367
sS'jarred'
p2414
I5238
sS'attache'
p2415
I4637
sS'seems'
p2416
I647
sS'except'
p2417
I1067
sS'ther'
p2418
I1786
sS'tht'
p2419
I5398
sS'instrument'
p2420
I4047
sS'thimble'
p2421
I2213
sS'pile'
p2422
I1809
sS'rosy'
p2423
I1276
sS'skiinny'
p2424
I3600
sS'ghostly'
p2425
I2739
sS'prominently'
p2426
I1148
sS'multishaped'
p2427
I3047
sS'tinit'
p2428
I3941
sS'pistilsl'
p2429
I4628
sS'styles'
p2430
I652
sS'boast'
p2431
I4412
sS'slanted'
p2432
I3453
sS'fourteen'
p2433
I4381
sS'doled'
p2434
I5101
sS'around'
p2435
I60
sS'ponderosa'
p2436
I5075
sS'arounf'
p2437
I3952
sS'read'
p2438
I1422
sS'outermost'
p2439
I1390
sS'specimen'
p2440
I1222
sS'ribbons'
p2441
I3640
sS'amd'
p2442
I1914
sS'peticals'
p2443
I5156
sS'dark'
p2444
I34
sS'darj'
p2445
I3171
sS'grid'
p2446
I3109
sS'whth'
p2447
I3535
sS'holly'
p2448
I3262
sS'whte'
p2449
I2217
sS'world'
p2450
I4477
sS'mounded'
p2451
I1571
sS'vague'
p2452
I4559
sS'rear'
p2453
I2396
sS'vertically'
p2454
I242
sS'clam'
p2455
I784
sS'heightened'
p2456
I3147
sS'stranger'
p2457
I3680
sS'dyed'
p2458
I1789
sS'collective'
p2459
I4282
sS'hlong'
p2460
I3836
sS'tend'
p2461
I2081
sS'chaotically'
p2462
I5155
sS'oddly'
p2463
I316
sS'facing'
p2464
I349
sS't'
p2465
I666
sS'symetrical'
p2466
I2707
sS'always'
p2467
I2466
sS'sporatidic'
p2468
I5034
sS'claw'
p2469
I2729
sS'tower'
p2470
I921
sS'inter'
p2471
I3849
sS'poinnted'
p2472
I4510
sS'grouping'
p2473
I502
sS'twelve'
p2474
I2311
sS'filling'
p2475
I3627
sS'crunchy'
p2476
I2626
sS'worldly'
p2477
I3685
sS'exposed'
p2478
I938
sS'loosely'
p2479
I829
sS'spft'
p2480
I4979
sS'tannish'
p2481
I2542
sS'interlock'
p2482
I2363
sS'wjite'
p2483
I3630
sS'exposes'
p2484
I4639
sS'septals'
p2485
I3125
sS'unraveling'
p2486
I4164
sS'sen'
p2487
I2806
sS'diving'
p2488
I4645
sS'spash'
p2489
I3423
sS'intact'
p2490
I2195
sS'ascent'
p2491
I3218
sS'matching'
p2492
I650
sS'alternates'
p2493
I4742
sS'moisture'
p2494
I5396
sS'outr'
p2495
I3079
sS'webbing'
p2496
I3355
sS'prolific'
p2497
I3973
sS'earth'
p2498
I1892
sS'tube'
p2499
I109
sS'lend'
p2500
I2635
sS'slick'
p2501
I3028
sS'dimpled'
p2502
I3406
sS'moon'
p2503
I3190
sS'redin'
p2504
I2119
sS'teardrop'
p2505
I810
sS'oute'
p2506
I3856
sS'moderate'
p2507
I3163
sS'tubs'
p2508
I5266
sS'knife'
p2509
I2055
sS'process'
p2510
I5368
sS'wheat'
p2511
I4296
sS'clumpsy'
p2512
I3568
sS'power'
p2513
I3546
sS'uniformly'
p2514
I1467
sS'nails'
p2515
I4773
sS'seedlings'
p2516
I2756
sS'notable'
p2517
I4822
sS'unusual'
p2518
I715
sS'royals'
p2519
I4010
sS'broken'
p2520
I2333
sS'olor'
p2521
I706
sS'scrunchie'
p2522
I3966
sS'gradiated'
p2523
I4363
sS'drak'
p2524
I2732
sS'hightlights'
p2525
I4871
sS'vains'
p2526
I5333
sS'on'
p2527
I29
sS'om'
p2528
I2984
sS'subdued'
p2529
I3220
sS'central'
p2530
I246
sS'origins'
p2531
I1966
sS'sre'
p2532
I3796
sS'cheerleading'
p2533
I4433
sS'of'
p2534
I19
sS'fringe'
p2535
I238
sS'favorite'
p2536
I4092
sS'meaning'
p2537
I2814
sS'slender'
p2538
I298
sS'pproturding'
p2539
I4202
sS'containg'
p2540
I3181
sS'boldly'
p2541
I3228
sS'stand'
p2542
I493
sS'ribs'
p2543
I2328
sS'fringy'
p2544
I3691
sS'mixed'
p2545
I740
sS'petalas'
p2546
I2437
sS'alternaetely'
p2547
I4215
sS'or'
p2548
I210
sS'stemans'
p2549
I1938
sS'asymetrical'
p2550
I2397
sS'amber'
p2551
I1806
sS'conststently'
p2552
I5317
sS'curling'
p2553
I453
sS'burning'
p2554
I2485
sS'whites'
p2555
I1818
sS'whiter'
p2556
I1169
sS'spreading'
p2557
I1599
sS'bountiful'
p2558
I2579
sS'grteen'
p2559
I4697
sS'rising'
p2560
I758
sS'lively'
p2561
I1850
sS'strip'
p2562
I726
sS'alternqately'
p2563
I3932
sS'distinctively'
p2564
I5182
sS'your'
p2565
I1715
sS'purplish'
p2566
I450
sS'buds'
p2567
I362
sS'ared'
p2568
I2174
sS'therm'
p2569
I2907
sS'fill'
p2570
I2263
sS'weight'
p2571
I2154
sS'area'
p2572
I391
sS'bristles'
p2573
I2105
sS'there'
p2574
I145
sS'hey'
p2575
I2935
sS'stark'
p2576
I1089
sS'desert'
p2577
I4507
sS'start'
p2578
I589
sS'hron'
p2579
I4665
sS'low'
p2580
I824
sS'stars'
p2581
I1310
sS'whiten'
p2582
I4886
sS'baseballs'
p2583
I3980
sS'pinwheel'
p2584
I426
sS'valley'
p2585
I3155
sS'bubble'
p2586
I1995
sS'humminbirds'
p2587
I3211
sS'eges'
p2588
I4062
sS'pollinator'
p2589
I3010
sS'jug'
p2590
I1114
sS'pteal'
p2591
I3722
sS'peaceful'
p2592
I4222
sS'pitcher'
p2593
I5144
sS'amongst'
p2594
I2146
sS'wite'
p2595
I2950
sS'land'
p2596
I4853
sS'pistal'
p2597
I790
sS'jut'
p2598
I2705
sS'ppink'
p2599
I4978
sS'pitched'
p2600
I3580
sS'blueish'
p2601
I1290
sS'with'
p2602
I9
sS'borders'
p2603
I831
sS'sppoted'
p2604
I2874
sS'wuth'
p2605
I3818
sS'toned'
p2606
I745
sS'dekicate'
p2607
I4942
sS'darken'
p2608
I1087
sS'arranged'
p2609
I82
sS'embedded'
p2610
I802
sS'pule'
p2611
I5261
sS'jas'
p2612
I3787
sS'interiors'
p2613
I830
sS'practically'
p2614
I3485
sS'arranges'
p2615
I3631
sS'peeking'
p2616
I1485
sS'dirty'
p2617
I1608
sS'tones'
p2618
I664
sS'ovoid'
p2619
I4855
sS'flats'
p2620
I4055
sS'grass'
p2621
I887
sS'pinch'
p2622
I4336
sS'trunoer'
p2623
I5274
sS'rust'
p2624
I1229
sS'darker'
p2625
I96
sS'detailed'
p2626
I1667
sS'wants'
p2627
I2529
sS'ae'
p2628
I1200
sS'ad'
p2629
I1021
sS'fright'
p2630
I3995
sS'af'
p2631
I3072
sS'taste'
p2632
I5131
sS'protrudes'
p2633
I1103
sS'accents'
p2634
I223
sS'describe'
p2635
I1816
sS'am'
p2636
I2379
sS'halo'
p2637
I2262
sS'deep'
p2638
I112
sS'an'
p2639
I99
sS'logn'
p2640
I2877
sS'as'
p2641
I30
sS'ar'
p2642
I1231
sS'at'
p2643
I52
sS'file'
p2644
I4729
sS'alernaetly'
p2645
I5241
sS'girlfriend'
p2646
I4069
sS'sheath'
p2647
I3115
sS'encompass'
p2648
I1707
sS'moves'
p2649
I2147
sS'ateries'
p2650
I5107
sS'complements'
p2651
I4827
sS'protruded'
p2652
I4436
sS'cream'
p2653
I344
sS'hit'
p2654
I2715
sS'again'
p2655
I2200
sS'pedice'
p2656
I4792
sS'antenna'
p2657
I1110
sS'enfolding'
p2658
I4602
sS'waxed'
p2659
I5381
sS'shots'
p2660
I5234
sS'happienes'
p2661
I3694
sS'graduate'
p2662
I1807
sS'rubber'
p2663
I4854
sS'tight'
p2664
I417
sS'fewrwe'
p2665
I3287
sS'terminating'
p2666
I3671
sS'5'
p2667
I311
sS'protuding'
p2668
I2353
sS'pinlk'
p2669
I4523
sS'starkly'
p2670
I4446
sS'you'
p2671
I546
sS'strung'
p2672
I3468
sS'epals'
p2673
I2623
sS'fork'
p2674
I4364
sS'poop'
p2675
I4150
sS'arelarge'
p2676
I5394
sS'stamwen'
p2677
I4496
sS'separate'
p2678
I442
sS'shelter'
p2679
I4083
sS'centeer'
p2680
I5410
sS'teeth'
p2681
I3615
sS'pear'
p2682
I1481
sS'm'
p2683
I1956
sS'dented'
p2684
I2660
sS'includes'
p2685
I1929
sS'greewn'
p2686
I3328
sS'laerger'
p2687
I2522
sS'peal'
p2688
I2377
sS'dominates'
p2689
I4845
sS'flattened'
p2690
I1164
sS'included'
p2691
I4934
sS'decorated'
p2692
I1870
sS'prongs'
p2693
I4726
sS'lipstick'
p2694
I5041
sS'building'
p2695
I2083
sS'centerpiece'
p2696
I2003
sS'bilateral'
p2697
I1603
sS'pollens'
p2698
I2036
sS'wife'
p2699
I2283
sS'delecate'
p2700
I5154
sS'thorn'
p2701
I1580
sS'curve'
p2702
I383
sS'variegated'
p2703
I604
sS'hello'
p2704
I3656
sS'curvy'
p2705
I574
sS'stringed'
p2706
I4759
sS'mimic'
p2707
I5116
sS'mast'
p2708
I4294
sS'rimmed'
p2709
I1161
sS'resembles'
p2710
I676
sS'peeks'
p2711
I5134
sS'ovary'
p2712
I130
sS'once'
p2713
I1666
sS'starting'
p2714
I515
sS'strings'
p2715
I1160
sS'bus'
p2716
I4058
sS'tricolor'
p2717
I4837
sS'all'
p2718
I179
sS'looped'
p2719
I2425
sS'wirtg'
p2720
I4964
sS'lace'
p2721
I2187
sS'pointing'
p2722
I365
sS'peacock'
p2723
I2409
sS'swirly'
p2724
I1975
sS'lack'
p2725
I2404
sS'splitting'
p2726
I3467
sS'ouetr'
p2727
I3257
sS'shaidng'
p2728
I2080
sS'founded'
p2729
I5312
sS'needlike'
p2730
I4741
sS'disc'
p2731
I181
sS'capsul'
p2732
I2761
sS'messy'
p2733
I1490
sS'lacy'
p2734
I1117
sS'disk'
p2735
I381
sS'revealed'
p2736
I2989
sS'teardropped'
p2737
I4205
sS'carpet'
p2738
I4252
sS'nested'
p2739
I2924
sS'isred'
p2740
I4577
sS'glimpse'
p2741
I4096
sS'blueberries'
p2742
I1897
sS'puffball'
p2743
I2077
sS'trumpeted'
p2744
I2180
sS'lining'
p2745
I1408
sS'ts'
p2746
I3530
sS'sparkling'
p2747
I2995
sS'bends'
p2748
I2448
sS'to'
p2749
I59
sS'tail'
p2750
I3148
sS'cform'
p2751
I4668
sS'andred'
p2752
I3628
sS'th'
p2753
I1202
sS'crimson'
p2754
I592
sS'flowee'
p2755
I3790
sS'nodes'
p2756
I3927
sS'te'
p2757
I3040
sS'handmade'
p2758
I5222
sS'colums'
p2759
I3273
sS'bevy'
p2760
I4145
sS'pinjk'
p2761
I4790
sS'global'
p2762
I3974
sS'ofthe'
p2763
I4338
sS'sitting'
p2764
I469
sS'very'
p2765
I41
sS'alerger'
p2766
I5339
sS'trailing'
p2767
I2701
sS'puffy'
p2768
I619
sS'brownsish'
p2769
I3545
sS'fat'
p2770
I978
sS'coloured'
p2771
I2312
sS'etal'
p2772
I5235
sS'retract'
p2773
I4605
sS'fan'
p2774
I292
sS'hatching'
p2775
I3504
sS'fall'
p2776
I1197
sS'fab'
p2777
I4367
sS'predominately'
p2778
I1648
sS'laerg'
p2779
I4641
sS'wilting'
p2780
I1059
sS'ramen'
p2781
I4722
sS'fourth'
p2782
I2438
sS'pinecones'
p2783
I4279
sS'cheerful'
p2784
I2819
sS'veined'
p2785
I251
sS'largr'
p2786
I1701
sS'lillie'
p2787
I5426
sS'towers'
p2788
I2928
sS'laying'
p2789
I1060
sS'joined'
p2790
I911
sS'cascading'
p2791
I3033
sS'intricately'
p2792
I2007
sS'large'
p2793
I28
sS'jointed'
p2794
I5221
sS'sand'
p2795
I4952
sS'swirling'
p2796
I1507
sS'sepals'
p2797
I83
sS'dusky'
p2798
I1613
sS'imperceptible'
p2799
I3031
sS'small'
p2800
I37
sS'tendril'
p2801
I2358
sS'undulated'
p2802
I5135
sS'twigs'
p2803
I4182
sS'tem'
p2804
I2555
sS'ten'
p2805
I1011
sS'colossal'
p2806
I3320
sS'tea'
p2807
I4393
sS'doted'
p2808
I2043
sS'ted'
p2809
I3888
sS'nearing'
p2810
I1597
sS'past'
p2811
I1565
sS'intricate'
p2812
I1140
sS'mesmerizing'
p2813
I4461
sS'titles'
p2814
I2580
sS'design'
p2815
I516
sS'displays'
p2816
I1020
sS'further'
p2817
I946
sS'situated'
p2818
I1186
sS'ribbon'
p2819
I797
sS'lomg'
p2820
I4740
sS'trigonal'
p2821
I5174
sS'what'
p2822
I380
sS'flwoer'
p2823
I2735
sS'abd'
p2824
I2107
sS'housed'
p2825
I2780
sS'sun'
p2826
I736
sS'section'
p2827
I948
sS'drifting'
p2828
I4044
sS'brief'
p2829
I4578
sS'burgundy'
p2830
I306
sS'purpleish'
p2831
I2153
sS'vcolor'
p2832
I3929
sS'sunrise'
p2833
I4542
sS'intersect'
p2834
I4892
sS'coronet'
p2835
I2828
sS'seemed'
p2836
I4482
sS'plush'
p2837
I2659
sS'multitude'
p2838
I941
sS'revealing'
p2839
I716
sS'compact'
p2840
I1107
sS'condensed'
p2841
I1388
sS'full'
p2842
I498
sS'ruffle'
p2843
I475
sS'withgreen'
p2844
I3957
sS'trampone'
p2845
I3981
sS'stages'
p2846
I5177
sS'loose'
p2847
I623
sS'yellower'
p2848
I3032
sS'moddled'
p2849
I5427
sS'rigged'
p2850
I2297
sS'cylindrical'
p2851
I909
sS'threads'
p2852
I2644
sS'compressed'
p2853
I3978
sS'directions'
p2854
I494
sS'stigman'
p2855
I4170
sS'hasv'
p2856
I3596
sS'strong'
p2857
I738
sS'table'
p2858
I4424
sS'squashed'
p2859
I3295
sS'colorec'
p2860
I4220
sS'increments'
p2861
I3570
sS'colored'
p2862
I50
sS'segmants'
p2863
I4685
sS'extraordinary'
p2864
I2601
sS'outgrowth'
p2865
I3346
sS'shag'
p2866
I4251
sS'ditached'
p2867
I3146
sS'stretching'
p2868
I2384
sS'allows'
p2869
I2869
sS'inseam'
p2870
I4275
sS'satb'
p2871
I3597
sS'veining'
p2872
I625
sS'amount'
p2873
I364
sS'eadges'
p2874
I3863
sS'haslong'
p2875
I4505
sS'milky'
p2876
I1057
sS'coat'
p2877
I4881
sS'ayellow'
p2878
I4124
sS'narrow'
p2879
I116
sS'laves'
p2880
I2630
sS'blacjk'
p2881
I3829
sS'elongated'
p2882
I274
sS'giveaway'
p2883
I4517
sS'uniquely'
p2884
I930
sS'sahpe'
p2885
I3558
sS'followed'
p2886
I825
sS'disposition'
p2887
I2024
sS'family'
p2888
I1081
sS'shad'
p2889
I4142
sS'suddenly'
p2890
I711
sS'sherbet'
p2891
I2477
sS'wiling'
p2892
I3474
sS'maby'
p2893
I4425
sS'ling'
p2894
I3772
sS'backed'
p2895
I2985
sS'follower'
p2896
I3614
sS'snug'
p2897
I3579
sS'harvest'
p2898
I4460
sS'scraggly'
p2899
I4781
sS'pigmented'
p2900
I3308
sS'darkens'
p2901
I3763
sS'lilke'
p2902
I5268
sS'smal'
p2903
I1819
sS'granular'
p2904
I4968
sS'conventional'
p2905
I5065
sS'eye'
p2906
I1025
sS'takes'
p2907
I2882
sS'maron'
p2908
I4287
sS'distinct'
p2909
I421
sS'faint'
p2910
I746
sS'two'
p2911
I154
sS'shite'
p2912
I2900
sS'pearl'
p2913
I1887
sS'splash'
p2914
I943
sS'smalle'
p2915
I5366
sS'widens'
p2916
I3434
sS'gorgeous'
p2917
I996
sS'ovules'
p2918
I1168
sS'pettels'
p2919
I4519
sS'brow'
p2920
I5257
sS'thistle'
p2921
I3718
sS'more'
p2922
I377
sS'flat'
p2923
I140
sS'diamond'
p2924
I1111
sS'flap'
p2925
I4838
sS'pads'
p2926
I2341
sS'vining'
p2927
I4912
sS'lush'
p2928
I616
sS'protrudibd'
p2929
I4707
sS'marks'
p2930
I835
sS'flay'
p2931
I2509
sS'enormous'
p2932
I4154
sS'flowerlike'
p2933
I5286
sS'syrronded'
p2934
I4199
sS'weaved'
p2935
I3175
sS'flag'
p2936
I4820
sS'ate'
p2937
I1754
sS'sunshiney'
p2938
I4140
sS'stick'
p2939
I542
sS'proceed'
p2940
I4674
sS'particular'
p2941
I133
sS'edeges'
p2942
I3386
sS'edgings'
p2943
I5164
sS'mounted'
p2944
I1802
sS'producing'
p2945
I1560
sS'pleasing'
p2946
I2520
sS'popping'
p2947
I2897
sS'aglow'
p2948
I4035
sS'blemishes'
p2949
I4128
sS'keeping'
p2950
I3652
sS'include'
p2951
I1592
sS'trhat'
p2952
I3087
sS'dewy'
p2953
I5108
sS'cluster'
p2954
I124
sS'dep'
p2955
I3099
sS'intensely'
p2956
I3956
sS'melt'
p2957
I5255
sS'cicular'
p2958
I4595
sS'dew'
p2959
I1280
sS'remain'
p2960
I2403
sS'dowards'
p2961
I2407
sS'peals'
p2962
I769
sS'v'
p2963
I1495
sS'dnearthe'
p2964
I4108
sS'corncob'
p2965
I4836
sS'seagull'
p2966
I3193
sS'male'
p2967
I5299
sS'ded'
p2968
I5343
sS'elomgate'
p2969
I4532
sS'beautiful'
p2970
I161
sS'transcend'
p2971
I3059
sS'numberd'
p2972
I2224
sS'palest'
p2973
I3812
sS'oranger'
p2974
I4366
sS'encircle'
p2975
I744
sS'stacking'
p2976
I3073
sS'enveloped'
p2977
I4185
sS'laerge'
p2978
I4068
sS'sectioned'
p2979
I2260
sS'duets'
p2980
I3875
sS'fillaments'
p2981
I1720
sS'accept'
p2982
I3660
sS'spals'
p2983
I2063
sS'sphere'
p2984
I579
sS'seaplas'
p2985
I2641
sS'protects'
p2986
I2765
sS'numbers'
p2987
I1464
sS'ave'
p2988
I3946
sS'sharp'
p2989
I248
sS'magenta'
p2990
I214
sS'lacks'
p2991
I2150
sS'cplor'
p2992
I4308
sS'l8'
p2993
I3704
sS'multilayers'
p2994
I3976
sS'axis'
p2995
I2839
sS'huge'
p2996
I530
sS'interconnect'
p2997
I5355
sS'bat'
p2998
I3852
sS'rather'
p2999
I1047
sS'multitudes'
p3000
I3247
sS'pressing'
p3001
I4110
sS'everyday'
p3002
I3902
sS'shapded'
p3003
I4318
sS'wax'
p3004
I1782
sS'<PAD>'
p3005
I0
sS'wither'
p3006
I2058
sS'stemming'
p3007
I900
sS'possibly'
p3008
I1999
sS'stamenj'
p3009
I3899
sS'browns'
p3010
I5252
sS'spedal'
p3011
I3774
sS'bround'
p3012
I4144
sS'needl'
p3013
I3260
sS'waved'
p3014
I2189
sS'roubded'
p3015
I4394
sS'plant'
p3016
I276
sS'continues'
p3017
I3221
sS'frilly'
p3018
I444
sS'voliet'
p3019
I3581
sS'petite'
p3020
I1620
sS'emulate'
p3021
I1348
sS'florescent'
p3022
I1903
sS'smallers'
p3023
I3532
sS'dwarfed'
p3024
I2878
sS'whoit'
p3025
I3324
sS'frills'
p3026
I2834
sS'reflect'
p3027
I4976
sS'perforated'
p3028
I4345
sS'strinfgy'
p3029
I3604
sS'plane'
p3030
I2380
sS'blood'
p3031
I751
sS'wtiha'
p3032
I3933
sS'coming'
p3033
I272
sS'hapeof'
p3034
I4033
sS'horizontal'
p3035
I957
sS'bloom'
p3036
I253
sS'wavey'
p3037
I2025
sS'fo'
p3038
I2091
sS'a'
p3039
I10
sS'finest'
p3040
I4701
sS'short'
p3041
I77
sS'outword'
p3042
I4913
sS'lizard'
p3043
I5143
sS'resemble'
p3044
I534
sS'boarders'
p3045
I2197
sS'twisting'
p3046
I1922
sS'stinking'
p3047
I5186
sS'pedivcel'
p3048
I4812
sS'dragon'
p3049
I2156
sS'roundish'
p3050
I1325
sS'perhaps'
p3051
I4763
sS'overlappng'
p3052
I4261
sS'coan'
p3053
I2700
sS'tentacles'
p3054
I1989
sS'shade'
p3055
I295
sS'bothces'
p3056
I5099
sS'trellis'
p3057
I3300
sS'egg'
p3058
I1012
sS'rotate'
p3059
I3038
sS'patio'
p3060
I5206
sS'monadelphous'
p3061
I2642
sS'hovering'
p3062
I5042
sS'adorned'
p3063
I2158
sS'roundec'
p3064
I3663
sS'rounded'
p3065
I42
sS'help'
p3066
I2530
sS'ith'
p3067
I1370
sS'flamboyant'
p3068
I5078
sS'winged'
p3069
I1788
sS'bowl'
p3070
I310
sS'bushlike'
p3071
I3549
sS'soon'
p3072
I2106
sS'indistinguishable'
p3073
I1886
sS'held'
p3074
I1092
sS'rounder'
p3075
I1861
sS'paper'
p3076
I538
sS'through'
p3077
I343
sS'goldish'
p3078
I1963
sS'brim'
p3079
I2764
sS'tarn'
p3080
I4826
sS'concentric'
p3081
I842
sS'purplae'
p3082
I3131
sS'its'
p3083
I70
sS'roots'
p3084
I2873
sS'colorpetals'
p3085
I4563
sS'25'
p3086
I4472
sS'fanning'
p3087
I1287
sS'20'
p3088
I2103
sS'forwards'
p3089
I4266
sS'cuved'
p3090
I2592
sS'inward'
p3091
I389
sS'buttercup'
p3092
I2014
sS'lipped'
p3093
I3369
sS'actually'
p3094
I1968
sS'centermost'
p3095
I3601
sS'violetin'
p3096
I4085
sS'strange'
p3097
I352
sS'lternatly'
p3098
I3242
sS'sunken'
p3099
I2258
sS'multiclored'
p3100
I3473
sS'stamne'
p3101
I1446
sS'stamern'
p3102
I4689
sS'delacate'
p3103
I4228
sS'lacey'
p3104
I1955
sS'brwon'
p3105
I1308
sS'good'
p3106
I2938
sS'darkish'
p3107
I2881
sS'sucking'
p3108
I3341
sS'nestled'
p3109
I1258
sS'severely'
p3110
I4644
sS'levaes'
p3111
I4579
sS'components'
p3112
I4330
sS'maler'
p3113
I4088
sS'closelytogether'
p3114
I4032
sS'dpurple'
p3115
I4959
sS'sepaled'
p3116
I2817
sS'flwer'
p3117
I2507
sS'snowball'
p3118
I3620
sS'frizzy'
p3119
I1122
sS'iridescent'
p3120
I2816
sS'compound'
p3121
I2207
sS'indentations'
p3122
I4903
sS'towering'
p3123
I893
sS'lightens'
p3124
I1531
sS'bigger'
p3125
I1126
sS'mutlicolored'
p3126
I2387
sS'develops'
p3127
I4241
sS'easily'
p3128
I1082
sS'likeness'
p3129
I3213
sS'leavs'
p3130
I4226
sS'yellowy'
p3131
I2969
sS'hook'
p3132
I2419
sS'yelloww'
p3133
I1939
sS'fully'
p3134
I649
sS'presented'
p3135
I2344
sS'yellows'
p3136
I1184
sS'stink'
p3137
I4684
sS'pedicial'
p3138
I3992
sS'stiles'
p3139
I3301
sS'conic'
p3140
I4897
sS'altrnatly'
p3141
I2088
sS'ecru'
p3142
I4592
sS'wiytgh'
p3143
I4451
sS'radial'
p3144
I1426
sS'found'
p3145
I1663
sS'yellowe'
p3146
I5092
sS'harboring'
p3147
I4988
sS'leveled'
p3148
I2599
sS'characterized'
p3149
I425
sS'lantern'
p3150
I1877
sS'heavy'
p3151
I1105
sS'stamnes'
p3152
I1868
sS'clams'
p3153
I3056
sS'ripply'
p3154
I1362
sS'chevron'
p3155
I612
sS'formulate'
p3156
I867
sS'visually'
p3157
I2820
sS'eyelash'
p3158
I1852
sS'house'
p3159
I1797
sS'hard'
p3160
I723
sS'positioned'
p3161
I1293
sS'wacky'
p3162
I4938
sS'wiggling'
p3163
I3005
sS'been'
p3164
I1212
sS'spcky'
p3165
I3591
sS'connect'
p3166
I1279
sS'bouquets'
p3167
I3518
sS'olored'
p3168
I3827
sS'spottde'
p3169
I5248
sS'cottony'
p3170
I5384
sS'beyond'
p3171
I3769
sS'inverted'
p3172
I834
sS'niger'
p3173
I4321
sS'woith'
p3174
I2070
sS'really'
p3175
I699
sS'fusia'
p3176
I4484
sS'silky'
p3177
I1295
sS'flowes'
p3178
I2792
sS'flower'
p3179
I3
sS'divide'
p3180
I5387
sS'flowet'
p3181
I4991
sS'flowew'
p3182
I3117
sS'flowey'
p3183
I5029
sS'scoops'
p3184
I4310
sS'surrounded'
p3185
I85
sS'stiamne'
p3186
I4698
sS'peyals'
p3187
I3003
sS'proimnent'
p3188
I3607
sS'veigns'
p3189
I4071
sS'si'
p3190
I4066
sS'balled'
p3191
I3883
sS'streaking'
p3192
I2215
sS'dominated'
p3193
I2690
sS'colorered'
p3194
I4888
sS'7'
p3195
I2955
sS'paradise'
p3196
I2057
sS'print'
p3197
I1590
sS'stegma'
p3198
I4928
sS'aligned'
p3199
I1113
sS'<UNK>'
p3200
I5429
sS'occurs'
p3201
I1207
sS'scoope'
p3202
I4880
sS'weave'
p3203
I5047
sS'fiber'
p3204
I2075
sS'bass'
p3205
I3850
sS'protruding'
p3206
I240
sS'dirt'
p3207
I3918
sS'squished'
p3208
I3267
sS'monotone'
p3209
I4210
sS'fulled'
p3210
I3647
sS'bulls'
p3211
I2360
sS'houses'
p3212
I990
sS'base'
p3213
I156
sS'brightest'
p3214
I2983
sS'acorn'
p3215
I1253
sS'put'
p3216
I2286
sS'fuller'
p3217
I2708
sS'teach'
p3218
I4233
sS'rises'
p3219
I2168
sS'beginning'
p3220
I1470
sS'staten'
p3221
I3289
sS'shot'
p3222
I4075
sS'hasa'
p3223
I4642
sS'bushes'
p3224
I2621
sS'pairs'
p3225
I1541
sS'bring'
p3226
I5424
sS'ms'
p3227
I4111
sS'thread'
p3228
I1219
sS'overlaid'
p3229
I1649
sS'blossoming'
p3230
I1142
sS'positioning'
p3231
I3855
sS'taht'
p3232
I2140
sS'salmnon'
p3233
I4581
sS'fruit'
p3234
I1468
sS'atches'
p3235
I4868
sS'daisy'
p3236
I1017
sS'orage'
p3237
I3183
sS'aclosed'
p3238
I3377
sS'blush'
p3239
I972
sS'clump'
p3240
I521
sS'5th'
p3241
I4113
sS'bushel'
p3242
I3392
sS'hexagone'
p3243
I4910
sS'beatuiful'
p3244
I4078
sS'whiyte'
p3245
I2440
sS'simply'
p3246
I4171
sS'feel'
p3247
I2104
sS'flowerrs'
p3248
I3633
sS'shapped'
p3249
I2501
sS'number'
p3250
I247
sS'fancy'
p3251
I2510
sS'linking'
p3252
I5422
sS'feet'
p3253
I3480
sS'amazing'
p3254
I3466
sS'enlarged'
p3255
I4700
sS'shapely'
p3256
I3669
sS'least'
p3257
I1855
sS'shakes'
p3258
I4347
sS'climbing'
p3259
I1378
sS'bland'
p3260
I2052
sS'interleaved'
p3261
I3636
sS'cups'
p3262
I1215
sS'pointessa'
p3263
I3895
sS'differ'
p3264
I2391
sS'heads'
p3265
I965
sS'paint'
p3266
I2239
sS'blossom'
p3267
I268
sS'leading'
p3268
I407
sS'crowding'
p3269
I3365
sS'blosson'
p3270
I2957
sS'moderately'
p3271
I2996
sS'flimsy'
p3272
I2811
sS'hangs'
p3273
I764
sS'stames'
p3274
I4380
sS'intense'
p3275
I2942
sS'petls'
p3276
I1671
sS'180'
p3277
I2769
sS'wonderful'
p3278
I5228
sS'expand'
p3279
I2862
sS'statement'
p3280
I4663
sS'marble'
p3281
I4848
sS'ton'
p3282
I2164
sS'majority'
p3283
I2458
sS'scheme'
p3284
I765
sS'smoothed'
p3285
I1640
sS'bumble'
p3286
I3776
sS'spongy'
p3287
I3965
sS'sgtigma'
p3288
I4937
sS'behind'
p3289
I852
sS'clusted'
p3290
I3969
sS'wqith'
p3291
I4427
sS'needle'
p3292
I265
sS'park'
p3293
I2545
sS'lrger'
p3294
I3939
sS'grooved'
p3295
I2698
sS'draped'
p3296
I5152
sS'sizable'
p3297
I4842
sS'part'
p3298
I346
sS'differentiate'
p3299
I3786
sS'sstamen'
p3300
I4965
sS'focusing'
p3301
I2673
sS'centes'
p3302
I4122
sS'printed'
p3303
I5258
sS'clored'
p3304
I2441
sS'ooutside'
p3305
I4670
sS'throughotu'
p3306
I3094
sS'perennial'
p3307
I3298
sS'peaked'
p3308
I4805
sS'kind'
p3309
I1234
sS'hundred'
p3310
I1193
sS'compliments'
p3311
I4200
sS'sta'
p3312
I1980
sS'double'
p3313
I463
sS'crests'
p3314
I5354
sS'indivudal'
p3315
I5390
sS'grey'
p3316
I571
sS'banana'
p3317
I2249
sS'colander'
p3318
I3447
sS'gree'
p3319
I1784
sS'autumn'
p3320
I2445
sS'stall'
p3321
I3926
sS'stalk'
p3322
I325
sS'gren'
p3323
I1155
sS'toward'
p3324
I237
sS'traveling'
p3325
I2742
sS'tongues'
p3326
I3275
sS'sprawling'
p3327
I4574
sS'withered'
p3328
I1821
sS'plump'
p3329
I5407
sS'crisscrossed'
p3330
I5207
sS'shpe'
p3331
I1703
sS'shpd'
p3332
I4857
sS'mossy'
p3333
I982
sS'alongside'
p3334
I2868
sS'ages'
p3335
I2988
sS'arrangment'
p3336
I4379
sS'whide'
p3337
I4810
sS'creases'
p3338
I860
sS'randomly'
p3339
I1429
sS'substantial'
p3340
I4770
sS'tups'
p3341
I3325
sS'engulf'
p3342
I2913
sS'colopr'
p3343
I3890
sS'creased'
p3344
I1359
sS'my'
p3345
I4441
sS'hexagonal'
p3346
I1727
sS'aged'
p3347
I4292
sS'organs'
p3348
I874
sS'fading'
p3349
I420
sS'sitgma'
p3350
I4813
sS'collapse'
p3351
I3641
sS'bae'
p3352
I5180
sS'lie'
p3353
I1045
sS'sandwiched'
p3354
I3282
sS'adorns'
p3355
I4544
sS'flared'
p3356
I1842
sS'pinkin'
p3357
I2833
sS'spaghetti'
p3358
I2096
sS'flaming'
p3359
I3201
sS'bract'
p3360
I1835
sS'cropped'
p3361
I2117
sS'silvery'
p3362
I2703
sS'lit'
p3363
I2824
sS'also'
p3364
I192
sS'entirety'
p3365
I1573
sS'internal'
p3366
I1309
sS'lip'
p3367
I1681
sS'build'
p3368
I2971
sS'frail'
p3369
I1719
sS'impressive'
p3370
I4478
sS'anthems'
p3371
I1442
sS'knobs'
p3372
I3312
sS'honeycomb'
p3373
I1492
sS'club'
p3374
I1657
sS'blotchey'
p3375
I5089
sS'singley'
p3376
I4260
sS'towards'
p3377
I157
sS'electric'
p3378
I1710
sS'populate'
p3379
I3172
sS'eggs'
p3380
I1991
sS'flute'
p3381
I2400
sS'salmon'
p3382
I529
sS'yellw'
p3383
I2871
sS'neonish'
p3384
I4885
sS'splay'
p3385
I4692
sS'most'
p3386
I581
sS'larg'
p3387
I2760
sS'oblongs'
p3388
I5400
sS'moss'
p3389
I2675
sS'darts'
p3390
I2965
sS'nothing'
p3391
I2035
sS'invisibility'
p3392
I4019
sS'extremely'
p3393
I570
sS'enveloping'
p3394
I4908
sS'stands'
p3395
I812
sS'patterned'
p3396
I781
sS'branching'
p3397
I1063
sS'parralell'
p3398
I5425
sS'severl'
p3399
I4262
sS'unequal'
p3400
I3208
sS'sturdy'
p3401
I743
sS'clear'
p3402
I974
sS'sometimes'
p3403
I2026
sS'cover'
p3404
I496
sS'withmany'
p3405
I3083
sS'traditional'
p3406
I1431
sS'oranhe'
p3407
I3922
sS'flaments'
p3408
I1986
sS'fuchia'
p3409
I4972
sS'artistic'
p3410
I2004
sS'clean'
p3411
I1482
sS'pedecil'
p3412
I980
sS'weigh'
p3413
I3805
sS'notch'
p3414
I1413
sS'tubes'
p3415
I327
sS'tellow'
p3416
I3179
sS'lying'
p3417
I1235
sS'bending'
p3418
I1605
sS'starshaped'
p3419
I2295
sS'particularly'
p3420
I4114
sS'gold'
p3421
I319
sS'blended'
p3422
I2337
sS'scattered'
p3423
I903
sS'lengthwise'
p3424
I2233
sS'converge'
p3425
I2564
sS'boad'
p3426
I5123
sS'sock'
p3427
I5259
sS'relation'
p3428
I4787
sS'reflecter'
p3429
I4843
sS'impressively'
p3430
I3771
sS'velvety'
p3431
I1058
sS'shoped'
p3432
I3792
sS'heavens'
p3433
I5023
sS'fine'
p3434
I729
sS'anhers'
p3435
I5025
sS'exteriors'
p3436
I2479
sS'polygonal'
p3437
I4633
sS'wraps'
p3438
I660
sS'weeping'
p3439
I2596
sS'pedicle'
p3440
I828
sS'dividing'
p3441
I2825
sS'merges'
p3442
I2850
sS'flesh'
p3443
I2042
sS'distributed'
p3444
I3042
sS'complement'
p3445
I4983
sS'wude'
p3446
I4239
sS'poach'
p3447
I3798
sS'collor'
p3448
I2378
sS'curvature'
p3449
I3465
sS'convoluted'
p3450
I3135
sS'pretty'
p3451
I254
sS'ounded'
p3452
I5315
sS'8'
p3453
I1208
sS'circle'
p3454
I239
sS'mike'
p3455
I4795
sS'withyellow'
p3456
I4253
sS'columns'
p3457
I1841
sS'shapee'
p3458
I3119
sS'porcupine'
p3459
I1904
sS'his'
p3460
I1717
sS'triangle'
p3461
I553
sS'upstanding'
p3462
I3789
sS'dandelion'
p3463
I3251
sS'anthes'
p3464
I1937
sS'sunny'
p3465
I1247
sS'watering'
p3466
I4587
sS'speckled'
p3467
I328
sS'blank'
p3468
I4489
sS'capsule'
p3469
I492
sS'b'
p3470
I2927
sS'yellwo'
p3471
I2631
sS'closely'
p3472
I182
sS'shared'
p3473
I3420
sS'speckles'
p3474
I410
sS'during'
p3475
I5165
sS'pedivel'
p3476
I2719
sS'beards'
p3477
I4415
sS'hin'
p3478
I1670
sS'fluff'
p3479
I2624
sS'spikes'
p3480
I509
sS'wyellow'
p3481
I3180
sS'belled'
p3482
I5247
sS'withe'
p3483
I1156
sS'spikey'
p3484
I445
sS'witha'
p3485
I1358
sS'diverge'
p3486
I3398
sS'doubled'
p3487
I1298
sS'withb'
p3488
I3239
sS'underlying'
p3489
I4966
sS'spiked'
p3490
I326
sS'common'
p3491
I2067
sS'activity'
p3492
I3909
sS'x'
p3493
I3440
sS'obscure'
p3494
I1960
sS'filamented'
p3495
I2684
sS'cheese'
p3496
I3654
sS'nibbled'
p3497
I4360
sS'withs'
p3498
I4316
sS'locating'
p3499
I3238
sS'enclosure'
p3500
I2093
sS'ponds'
p3501
I4500
sS'delicately'
p3502
I933
sS'set'
p3503
I277
sS'art'
p3504
I3197
sS'aspect'
p3505
I2884
sS'segmenting'
p3506
I4672
sS'jade'
p3507
I2604
sS'vine'
p3508
I608
sS'bracts'
p3509
I1267
sS'sex'
p3510
I1653
sS'flourishing'
p3511
I3569
sS'irregularly'
p3512
I1132
sS'see'
p3513
I713
sS'individual'
p3514
I414
sS'bare'
p3515
I2307
sS'are'
p3516
I8
sS'sea'
p3517
I1741
sS'floer'
p3518
I2689
sS'closd'
p3519
I4601
sS'close'
p3520
I388
sS'bark'
p3521
I2427
sS'ark'
p3522
I3700
sS'outward'
p3523
I294
sS'hibiscus'
p3524
I2364
sS'project'
p3525
I2238
sS'haspink'
p3526
I4788
sS'intersected'
p3527
I3254
sS'muted'
p3528
I1415
sS'distinctive'
p3529
I451
sS'stretches'
p3530
I4029
sS'leg'
p3531
I4369
sS'surmounted'
p3532
I2442
sS'eflower'
p3533
I5392
sS'drooping'
p3534
I185
sS'crisp'
p3535
I2827
sS'fans'
p3536
I1449
sS'creme'
p3537
I1772
sS'various'
p3538
I415
sS'vascular'
p3539
I1428
sS'pist'
p3540
I4626
sS'downturn'
p3541
I3401
sS'drupe'
p3542
I3360
sS'trimmings'
p3543
I4086
sS'numerous'
p3544
I202
sS'towarss'
p3545
I3508
sS'pictured'
p3546
I4031
sS'seeded'
p3547
I3697
sS'peeled'
p3548
I5110
sS'atre'
p3549
I2771
sS'creating'
p3550
I955
sS'complementary'
p3551
I4254
sS'funnels'
p3552
I4956
sS'sold'
p3553
I4089
sS'attention'
p3554
I1856
sS'punch'
p3555
I5357
sS'spray'
p3556
I2068
sS'mingling'
p3557
I4382
sS'purpe'
p3558
I2574
sS'distinguish'
p3559
I1301
sS'striated'
p3560
I851
sS'purpl'
p3561
I2355
sS'seamlessly'
p3562
I2856
sS'floats'
p3563
I1073
sS'inset'
p3564
I2554
sS'both'
p3565
I384
sS'tooooooward'
p3566
I4455
sS'orangesh'
p3567
I3448
sS'folding'
p3568
I1027
sS'stamemn'
p3569
I4006
sS'restaurant'
p3570
I2956
sS'tapered'
p3571
I232
sS'barely'
p3572
I792
sS'onion'
p3573
I3383
sS'hornlike'
p3574
I3567
sS'patterning'
p3575
I3497
sS'connection'
p3576
I4676
sS'redpatches'
p3577
I3921
sS'stamin'
p3578
I1038
sS'alot'
p3579
I1230
sS'let'
p3580
I4256
sS'sparklers'
p3581
I4724
sS'mean'
p3582
I4081
sS'whole'
p3583
I837
sS'spilling'
p3584
I5277
sS'reside'
p3585
I2281
sS'liked'
p3586
I2483
sS'onward'
p3587
I3388
sS'sparsley'
p3588
I3407
sS'separation'
p3589
I2857
sS'point'
p3590
I231
sS'simple'
p3591
I317
sS'sweet'
p3592
I3344
sS'loan'
p3593
I3457
sS'criss'
p3594
I4690
sS'sweep'
p3595
I2556
sS'whatever'
p3596
I2111
sS'hollow'
p3597
I853
sS'towarsa'
p3598
I2860
sS'fashion'
p3599
I518
sS'spotting'
p3600
I891
sS'frosty'
p3601
I2699
sS'prick'
p3602
I3253
sS'poink'
p3603
I3409
sS'asteraceae'
p3604
I1687
sS'throughout'
p3605
I337
sS'underlay'
p3606
I4309
sS'umonst'
p3607
I4283
sS'finally'
p3608
I1617
sS'fused'
p3609
I278
sS'tuffs'
p3610
I3571
sS'create'
p3611
I643
sS'stams'
p3612
I4457
sS'due'
p3613
I3250
sS'nonvisualized'
p3614
I3646
sS'whos'
p3615
I3268
sS'conelike'
p3616
I3708
sS'peppery'
p3617
I5130
sS'dropping'
p3618
I839
sS'pf'
p3619
I2543
sS'coarse'
p3620
I2629
sS'stamn'
p3621
I2202
sS'peppers'
p3622
I2161
sS'larhger'
p3623
I4014
sS'brick'
p3624
I2889
sS'meeting'
p3625
I3029
sS'stame'
p3626
I1712
sS'skyward'
p3627
I4794
sS'4'
p3628
I602
sS'firm'
p3629
I1127
sS'resting'
p3630
I1123
sS'broadre'
p3631
I3825
sS'heaviest'
p3632
I3727
sS'partly'
p3633
I1591
sS'pinnk'
p3634
I5269
sS'fire'
p3635
I1049
sS'antena'
p3636
I4204
sS'pedictel'
p3637
I1828
sS'gas'
p3638
I4052
sS'else'
p3639
I1947
sS'plumes'
p3640
I2170
sS'vaguely'
p3641
I2679
sS'bight'
p3642
I1418
sS'lives'
p3643
I3801
sS'hemispherical'
p3644
I4012
sS'magents'
p3645
I4895
sS'standout'
p3646
I3853
sS'despite'
p3647
I3934
sS'wood'
p3648
I5027
sS'trifold'
p3649
I2000
sS'plants'
p3650
I983
sS'intriguing'
p3651
I3281
sS'poinsettia'
p3652
I2781
sS'fur'
p3653
I2800
sS'look'
p3654
I261
sS'since'
p3655
I2640
sS'protection'
p3656
I3896
sS'solid'
p3657
I378
sS'belly'
p3658
I4580
sS'straight'
p3659
I348
sS'tip'
p3660
I209
sS'gem'
p3661
I4584
sS'twenty'
p3662
I1696
sS'amont'
p3663
I3303
sS'dusty'
p3664
I960
sS'while'
p3665
I188
sS'smoith'
p3666
I4876
sS'leaning'
p3667
I1673
sS'intermingled'
p3668
I4206
sS'arered'
p3669
I2484
sS'pentacle'
p3670
I2493
sS'frilled'
p3671
I1116
sS'real'
p3672
I2516
sS'erupting'
p3673
I2446
sS'ribbonlike'
p3674
I4037
sS'hornet'
p3675
I5385
sS'arching'
p3676
I3460
sS'backing'
p3677
I3431
sS'petal'
p3678
I40
sS'dotting'
p3679
I5402
sS'doward'
p3680
I5341
sS'tests'
p3681
I5091
sS'leans'
p3682
I3194
sS'peyal'
p3683
I4348
sS'itself'
p3684
I827
sS'petas'
p3685
I2316
sS'beautifully'
p3686
I1744
sS'ready'
p3687
I1836
sS'hellow'
p3688
I5004
sS'stye'
p3689
I4636
sS'attach'
p3690
I2038
sS'riotous'
p3691
I5307
sS'she'
p3692
I4607
sS'unnoticeable'
p3693
I3949
sS'lengthy'
p3694
I861
sS'shirt'
p3695
I2030
sS'fibers'
p3696
I2473
sS'lengths'
p3697
I1962
sS'squiggle'
p3698
I2099
sS'bristly'
p3699
I1678
sS'speard'
p3700
I2864
sS'undersides'
p3701
I1981
sS'leafed'
p3702
I1612
sS'elevated'
p3703
I4011
sS'wherein'
p3704
I2852
sS'shorter'
p3705
I681
sS'hooded'
p3706
I5273
sS'wierd'
p3707
I3451
sS'wacy'
p3708
I3868
sS'cascades'
p3709
I5020
sS'squiggly'
p3710
I1166
sS'bristle'
p3711
I1099
sS'9'
p3712
I4255
sS'leafes'
p3713
I3715
sS'ray'
p3714
I393
sS'higher'
p3715
I1550
sS'strips'
p3716
I804
sS'flowy'
p3717
I1654
sS'shped'
p3718
I1342
sS'flooded'
p3719
I4016
sS'pomegranate'
p3720
I3505
sS'perianth'
p3721
I3002
sS'leopard'
p3722
I1356
sS'yas'
p3723
I3770
sS'infuses'
p3724
I5081
sS'flowr'
p3725
I1389
sS'steps'
p3726
I5313
sS'moment'
p3727
I4702
sS'levels'
p3728
I1406
sS'moving'
p3729
I1487
sS'stripe'
p3730
I289
sS'peachy'
p3731
I1402
sS'flowe'
p3732
I1138
sS'robust'
p3733
I2496
sS'assortment'
p3734
I1679
sS'uninviting'
p3735
I4816
sS'stack'
p3736
I1098
sS'recent'
p3737
I4586
sS'pedtal'
p3738
I4483
sS'early'
p3739
I2951
sS'lower'
p3740
I446
sS'noodle'
p3741
I1884
sS'older'
p3742
I1458
sS'peridecel'
p3743
I3522
sS'paperlike'
p3744
I2937
sS'spindles'
p3745
I3345
sS'increases'
p3746
I3458
sS'wedged'
p3747
I2911
sS'edgy'
p3748
I3725
sS'sepels'
p3749
I3143
sS'segmented'
p3750
I2841
sS'edge'
p3751
I260
sS'mostlywhite'
p3752
I3124
sS'yellowin'
p3753
I4270
sS'consistency'
p3754
I2489
sS'y'
p3755
I3024
sS'wedges'
p3756
I3068
sS'longand'
p3757
I5283
sS'frizz'
p3758
I1990
sS'andare'
p3759
I4240
sS'comprise'
p3760
I2492
sS'clasped'
p3761
I3376
sS'pollen'
p3762
I118
sS'reds'
p3763
I1845
sS'construct'
p3764
I4769
sS'unseen'
p3765
I2888
sS'cornet'
p3766
I1525
sS'dasrk'
p3767
I5044
sS'denser'
p3768
I1912
sS'endges'
p3769
I2941
sS'birthday'
p3770
I4874
sS'blakc'
p3771
I3415
sS'sevenwhite'
p3772
I4422
sS'shape'
p3773
I54
sS'shapd'
p3774
I962
sS'collects'
p3775
I4178
sS'circling'
p3776
I923
sS'ghreen'
p3777
I2844
sS'shainf'
p3778
I3953
sS'alternative'
p3779
I1805
sS'bengal'
p3780
I3168
sS'withrounded'
p3781
I5093
sS'apple'
p3782
I5347
sS'multicolred'
p3783
I3096
sS'signal'
p3784
I4950
sS'hued'
p3785
I1502
sS'cup'
p3786
I252
sS'smaler'
p3787
I1046
sS'pionted'
p3788
I4635
sS'tamen'
p3789
I1812
sS'alternate'
p3790
I720
sS'drooped'
p3791
I1473
sS'rowed'
p3792
I2855
sS'throats'
p3793
I1272
sS'pillars'
p3794
I5159
sS'hues'
p3795
I479
sS'causing'
p3796
I4612
sS'moe'
p3797
I3156
sS'scrunched'
p3798
I2194
sS'win'
p3799
I5136
sS'amoutn'
p3800
I3745
sS'easter'
p3801
I4131
sS'remaining'
p3802
I2383
sS'collected'
p3803
I3886
sS'jutting'
p3804
I1225
sS'march'
p3805
I4289
sS'fother'
p3806
I4137
sS'format'
p3807
I4420
sS'conformed'
p3808
I4693
sS'big'
p3809
I135
sS'showing'
p3810
I522
sS'showcases'
p3811
I2832
sS'fewre'
p3812
I4286
sS'emanating'
p3813
I1052
sS'whispy'
p3814
I1131
sS'deepening'
p3815
I5063
sS'midle'
p3816
I4456
sS'filamnent'
p3817
I5168
sS'lightpourlple'
p3818
I3233
sS'dripping'
p3819
I4835
sS'shading'
p3820
I148
sS'bit'
p3821
I441
sS'stringhy'
p3822
I3315
sS'wings'
p3823
I1217
sS'translucent'
p3824
I1042
sS'smattering'
p3825
I2367
sS'shapea'
p3826
I4395
sS'seperate'
p3827
I2173
sS'anthers'
p3828
I58
sS'd'
p3829
I1421
sS'semi'
p3830
I656
sS'shaped'
p3831
I26
sS'spine'
p3832
I1391
sS'interestingly'
p3833
I3057
sS'colorfulness'
p3834
I3443
sS'oputer'
p3835
I1535
sS'whhit'
p3836
I4067
sS'shapes'
p3837
I406
sS'collect'
p3838
I3550
sS'individuals'
p3839
I2090
sS'spiny'
p3840
I622
sS'alternatively'
p3841
I2478
sS'popular'
p3842
I3516
sS'decrease'
p3843
I2573
sS'striples'
p3844
I4899
sS'harry'
p3845
I3237
sS'variegations'
p3846
I5040
sS'healthy'
p3847
I4554
sS'sghpae'
p3848
I4300
sS'interconnecting'
p3849
I4614
sS'pestil'
p3850
I2138
sS'andwhite'
p3851
I4987
sS'flowerets'
p3852
I4217
sS'cones'
p3853
I1340
sS'hinted'
p3854
I4417
sS'pointuy'
p3855
I5376
sS'absolutely'
p3856
I2385
sS'mauve'
p3857
I1101
sS'orangy'
p3858
I4568
sS'pedical'
p3859
I922
sS'some'
p3860
I167
sS'back'
p3861
I387
sS'emanate'
p3862
I1636
sS'yolk'
p3863
I2818
sS'lips'
p3864
I1195
sS'pack'
p3865
I4585
sS'palm'
p3866
I3023
sS'states'
p3867
I4778
sS'sight'
p3868
I881
sS'greener'
p3869
I2242
sS'candle'
p3870
I5031
sS'pale'
p3871
I64
sS'ontop'
p3872
I2503
sS'shotter'
p3873
I4468
sS'saucer'
p3874
I1520
sS'droopingdown'
p3875
I5331
sS'pronounced'
p3876
I757
sS'gradually'
p3877
I447
sS'crooked'
p3878
I3751
sS'puruple'
p3879
I4678
sS'stamens'
p3880
I61
sS'densley'
p3881
I4157
sS'spouting'
p3882
I3839
sS'apink'
p3883
I2663
sS'per'
p3884
I1016
sS'flatten'
p3885
I2369
sS'cupped'
p3886
I477
sS'connecting'
p3887
I1262
sS'lare'
p3888
I2786
sS'stamenb'
p3889
I1983
sS'ornate'
p3890
I1515
sS'lime'
p3891
I580
sS'fillamets'
p3892
I5322
sS'pea'
p3893
I3900
sS'antegrs'
p3894
I4947
sS'either'
p3895
I718
sS'contrasting'
p3896
I1051
sS'run'
p3897
I2947
sS'splatting'
p3898
I3134
sS'reach'
p3899
I862
sS'thinnat'
p3900
I3187
sS'perpendicular'
p3901
I1944
sS'stem'
p3902
I103
sS'calyx'
p3903
I1976
sS'concealed'
p3904
I5043
sS'nerves'
p3905
I4388
sS'crap'
p3906
I5204
sS'obscured'
p3907
I2558
sS'ochre'
p3908
I5103
sS'downward'
p3909
I213
sS'shine'
p3910
I1791
sS'shadings'
p3911
I4213
sS'meedle'
p3912
I4732
sS'illuminous'
p3913
I4715
sS'bristling'
p3914
I3353
sS'anything'
p3915
I4570
sS'disjointed'
p3916
I4583
sS'tracing'
p3917
I2511
sS'plaza'
p3918
I4755
sS'awhite'
p3919
I5316
sS'wrinkles'
p3920
I1420
sS'piled'
p3921
I2605
sS'range'
p3922
I682
sS'extensions'
p3923
I4290
sS'fanlike'
p3924
I4863
sS'wrinkled'
p3925
I184
sS'vonnected'
p3926
I4045
sS'hatched'
p3927
I3332
sS'shiny'
p3928
I235
sS'bleeds'
p3929
I1880
sS'block'
p3930
I5037
sS'anterior'
p3931
I4768
sS'significant'
p3932
I5009
sS'plethora'
p3933
I1689
sS'cetner'
p3934
I1198
sS'into'
p3935
I226
sS'within'
p3936
I684
sS'encircling'
p3937
I731
sS'framed'
p3938
I1013
sS'master'
p3939
I5102
sS'primarily'
p3940
I973
sS'coil'
p3941
I4598
sS'sports'
p3942
I1522
sS'pentagon'
p3943
I692
sS'ellipse'
p3944
I4916
sS'calming'
p3945
I2142
sS'suggestion'
p3946
I4040
sS'ornage'
p3947
I3177
sS'rows'
p3948
I171
sS'eiwth'
p3949
I4400
sS'symmentrical'
p3950
I5224
sS'eleven'
p3951
I2741
sS'multilayer'
p3952
I3598
sS'transcending'
p3953
I2922
sS'apparently'
p3954
I3804
sS'petlas'
p3955
I1626
sS'lone'
p3956
I2829
sS'ribboned'
p3957
I4406
sS'long'
p3958
I27
sS'backbent'
p3959
I5051
sS'occupy'
p3960
I4147
sS'creamish'
p3961
I3659
sS'overtunes'
p3962
I5011
sS'seapls'
p3963
I2094
sS'forward'
p3964
I1383
sS'grew'
p3965
I3948
sS'sections'
p3966
I1002
sS'opens'
p3967
I648
sS'opposed'
p3968
I4370
sS'marronn'
p3969
I3844
sS'fewrer'
p3970
I3188
sS'elsewhere'
p3971
I1273
sS'inches'
p3972
I2182
sS'ascend'
p3973
I3686
sS'atop'
p3974
I395
sS'frost'
p3975
I1625
sS'buttery'
p3976
I1586
sS'deliquet'
p3977
I4973
sS'perple'
p3978
I3348
sS'link'
p3979
I1469
sS'multilevel'
p3980
I2339
sS'newer'
p3981
I3362
sS'withdeep'
p3982
I5350
sS'upright'
p3983
I273
sS'line'
p3984
I504
sS'alternatelyv'
p3985
I4800
sS'oetals'
p3986
I2279
sS'dull'
p3987
I373
sS'reen'
p3988
I2524
sS'groupings'
p3989
I1982
sS'fades'
p3990
I732
sS'hair'
p3991
I408
sS'laeves'
p3992
I2954
sS'compactly'
p3993
I3964
sS'oival'
p3994
I4153
sS'welcoming'
p3995
I3217
sS'consist'
p3996
I631
sS'apricot'
p3997
I2546
sS'knitted'
p3998
I3643
sS'incase'
p3999
I4232
sS'up'
p4000
I147
sS'horned'
p4001
I2354
sS'oily'
p4002
I3007
sS'maturity'
p4003
I3215
sS'pnnk'
p4004
I3279
sS'splatted'
p4005
I4372
sS'mature'
p4006
I2133
sS'faded'
p4007
I766
sS'continuously'
p4008
I2607
sS'highlight'
p4009
I1314
sS'coveerd'
p4010
I3623
sS'strands'
p4011
I1094
sS'called'
p4012
I3379
sS'accentuated'
p4013
I4163
sS'floraletsare'
p4014
I4594
sS'tubed'
p4015
I3078
sS'constant'
p4016
I3058
sS'defined'
p4017
I1876
sS'stripped'
p4018
I1125
sS'trench'
p4019
I4051
sS'mneedle'
p4020
I3304
sS'strand'
p4021
I4713
sS'doesn'
p4022
I1332
sS'tinging'
p4023
I5079
sS'scarlet'
p4024
I984
sS'single'
p4025
I126
sS'diverse'
p4026
I2588
sS'bucnhed'
p4027
I2611
sS'undertones'
p4028
I1227
sS'graceful'
p4029
I2702
sS'curl'
p4030
I217
sS'gecko'
p4031
I4986
sS'jhas'
p4032
I4475
sS'cotton'
p4033
I2048
sS'altrnately'
p4034
I2803
sS'rainbow'
p4035
I4761
sS'lemon'
p4036
I1312
sS'nag'
p4037
I4184
sS'peach'
p4038
I137
sS'tuft'
p4039
I2010
sS'steman'
p4040
I358
sS'colormpetals'
p4041
I3259
sS'unfurl'
p4042
I2348
sS'pedecils'
p4043
I3234
sS'itsself'
p4044
I3906
sS'backs'
p4045
I2931
sS'bubblegum'
p4046
I1790
sS'teams'
p4047
I4796
sS'grouped'
p4048
I436
sS'vainy'
p4049
I3815
sS'shanding'
p4050
I3159
sS'swirl'
p4051
I762
sS'overly'
p4052
I3098
sS'dashes'
p4053
I1478
sS'nice'
p4054
I615
sS'happens'
p4055
I3905
sS'elements'
p4056
I3511
sS'mustard'
p4057
I1278
sS'wrinkly'
p4058
I563
sS'pinkesh'
p4059
I5280
sS'heir'
p4060
I3719
sS'sided'
p4061
I1134
sS'pineapple'
p4062
I1064
sS'faintly'
p4063
I2946
sS'replace'
p4064
I3884
sS'ather'
p4065
I5175
sS'insect'
p4066
I2049
sS'allowing'
p4067
I4549
sS'dos'
p4068
I3871
sS'highlighting'
p4069
I2204
sS'athey'
p4070
I2677
sS'wrinkle'
p4071
I1948
sS'bot'
p4072
I4479
sS'sides'
p4073
I582
sS'leaflets'
p4074
I1322
sS'epedicel'
p4075
I4864
sS'furthest'
p4076
I1639
sS'lane'
p4077
I3785
sS'corolla'
p4078
I735
sS'e'
p4079
I1713
sS'lead'
p4080
I969
sS'uniquie'
p4081
I3408
sS'overtop'
p4082
I3878
sS'blend'
p4083
I884
sS'age'
p4084
I5161
sS'crinkly'
p4085
I791
sS'holes'
p4086
I2256
sS'visual'
p4087
I4850
sS'togther'
p4088
I2808
sS'crease'
p4089
I2268
sS'cavity'
p4090
I2193
sS'depth'
p4091
I2416
sS'carrying'
p4092
I5085
sS'leak'
p4093
I3830
sS'far'
p4094
I1086
sS'everywhere'
p4095
I2759
sS'berries'
p4096
I821
sS'having'
p4097
I443
sS'evenly'
p4098
I800
sS'portraying'
p4099
I3102
sS'partial'
p4100
I5100
sS'fernlike'
p4101
I3684
sS'greeen'
p4102
I1457
sS'scooped'
p4103
I2801
sS'hooks'
p4104
I4638
sS'floasts'
p4105
I4512
sS'tattered'
p4106
I5363
sS'nuns'
p4107
I3454
sS'cobalt'
p4108
I2615
sS'alien'
p4109
I1891
sS'antennas'
p4110
I2658
sS'windy'
p4111
I3688
sS'softer'
p4112
I2513
sS'stops'
p4113
I3429
sS'broader'
p4114
I872
sS'dainty'
p4115
I1416
sS'go'
p4116
I472
sS'arewavy'
p4117
I2733
sS'toghether'
p4118
I3638
sS'centers'
p4119
I162
sS'subtly'
p4120
I3277
sS'bluish'
p4121
I634
sS'compose'
p4122
I3947
sS'ropund'
p4123
I3622
sS'teethy'
p4124
I4003
sS'young'
p4125
I2753
sS'trapizoidal'
p4126
I5006
sS'andpurple'
p4127
I4095
sS'geranium'
p4128
I2903
sS'outwards'
p4129
I332
sS'striping'
p4130
I1213
sS'cluttered'
p4131
I2160
sS'seedlike'
p4132
I4181
sS'lilly'
p4133
I1514
sS'friendly'
p4134
I2464
sS'coplored'
p4135
I5395
sS'starbursts'
p4136
I5120
sS'overlaps'
p4137
I4851
sS'arrayed'
p4138
I1441
sS'infinite'
p4139
I4026
sS'garden'
p4140
I1561
sS'stigmae'
p4141
I4969
sS'lenghth'
p4142
I3090
sS'centally'
p4143
I3901
sS'leafless'
p4144
I3552
sS'wave'
p4145
I2298
sS'blot'
p4146
I4680
sS'spoon'
p4147
I928
sS'wavy'
p4148
I74
sS'trough'
p4149
I2389
sS'mixing'
p4150
I4015
sS'lenghty'
p4151
I3756
sS'ale'
p4152
I5237
sS'continued'
p4153
I3800
sS'arrange'
p4154
I1811
sS'tri'
p4155
I1542
sS'entire'
p4156
I768
sS'cluser'
p4157
I5005
sS'tonal'
p4158
I3151
sS'stodgy'
p4159
I4135
sS'stiff'
p4160
I889
sS'asparagus'
p4161
I5372
sS'roll'
p4162
I5056
sS'button'
p4163
I1062
sS'weirdly'
p4164
I4824
sS'diameter'
p4165
I3590
sS'watered'
p4166
I4538
sS'hive'
p4167
I1742
sS'mottled'
p4168
I461
sS'tunnel'
p4169
I2763
sS'roounded'
p4170
I3920
sS'iprints'
p4171
I3887
sS'pebble'
p4172
I3539
sS'disheveled'
p4173
I5191
sS'limpish'
p4174
I3495
sS'encloses'
p4175
I1829
sS'smaller'
p4176
I219
sS'pears'
p4177
I3741
sS'muddles'
p4178
I4898
sS'bleeding'
p4179
I4869
sS'folds'
p4180
I970
sS'lightest'
p4181
I2921
sS'pepper'
p4182
I2306
sS'crop'
p4183
I4775
sS'fold'
p4184
I336
sS'usher'
p4185
I3396
sS'postil'
p4186
I4649
sS'trangle'
p4187
I3097
sS'enclosed'
p4188
I1143
sS'picked'
p4189
I4691
sS'pdicel'
p4190
I1833
sS'stamemns'
p4191
I5178
sS'protrude'
p4192
I486
sS'grooves'
p4193
I2880
sS'odd'
p4194
I514
sS'depression'
p4195
I2835
sS'graduating'
p4196
I1119
sS'thik'
p4197
I3807
sS'poke'
p4198
I1556
sS'donut'
p4199
I3100
sS'giving'
p4200
I1096
sS'anthem'
p4201
I1338
sS'anthen'
p4202
I3178
sS'slight'
p4203
I427
sS'paddle'
p4204
I1830
sS'consistently'
p4205
I3994
sS'shadinfg'
p4206
I4915
sS'puple'
p4207
I1216
sS'eating'
p4208
I3166
sS'anther'
p4209
I72
sS'flowing'
p4210
I627
sS'pristine'
p4211
I3944
sS'sorrounded'
p4212
I3823
sS'pinkand'
p4213
I3728
sS'expect'
p4214
I5250
sS'bird'
p4215
I645
sS'yllow'
p4216
I2762
sS'yeelow'
p4217
I2261
sS'body'
p4218
I1001
sS'unfurled'
p4219
I2494
sS'degree'
p4220
I1672
sS'urchin'
p4221
I3603
sS'respectively'
p4222
I4091
sS'gathered'
p4223
I1409
sS'duill'
p4224
I4610
sS'spacing'
p4225
I4074
sS'giant'
p4226
I1526
sS'outlying'
p4227
I4136
sS'highly'
p4228
I2220
sS'packing'
p4229
I3982
sS'objects'
p4230
I3477
sS'focused'
p4231
I4155
sS'swirled'
p4232
I1346
sS'pancake'
p4233
I2149
sS'others'
p4234
I633
sS'adjoined'
p4235
I4073
sS'becom'
p4236
I4413
sS'detached'
p4237
I3762
sS'extreme'
p4238
I3822
sS'settling'
p4239
I4785
sS'great'
p4240
I995
sS'casing'
p4241
I3202
sS'stalks'
p4242
I988
sS'pdicels'
p4243
I5032
sS'distressed'
p4244
I3080
sS'larger'
p4245
I207
sS'shades'
p4246
I151
sS'thata'
p4247
I2547
sS'leaving'
p4248
I1725
sS'spines'
p4249
I1240
sS'skirts'
p4250
I4335
sS'sword'
p4251
I2444
sS'difficulty'
p4252
I5132
sS'popcorn'
p4253
I2244
sS'climb'
p4254
I2600
sS'shaded'
p4255
I452
sS'makes'
p4256
I818
sS'thats'
p4257
I1792
sS'composed'
p4258
I540
sS'skiny'
p4259
I4038
sS'formulated'
p4260
I3011
sS'dalmatian'
p4261
I3022
sS'squiggley'
p4262
I3004
sS'vthis'
p4263
I4414
sS'nearest'
p4264
I1949
sS'outpouches'
p4265
I3794
sS'togetehr'
p4266
I2144
sS'limp'
p4267
I1589
sS'cloverleaf'
p4268
I3997
sS'wih'
p4269
I1750
sS'order'
p4270
I1483
sS'hardy'
p4271
I1518
sS'wit'
p4272
I897
sS'petaks'
p4273
I2472
sS'droops'
p4274
I901
sS'cheerleader'
p4275
I4028
sS'oval'
p4276
I45
sS'clockwise'
p4277
I2352
sS'boasts'
p4278
I3263
sS'cloud'
p4279
I1834
sS'droopy'
p4280
I459
sS'standing'
p4281
I600
sS'use'
p4282
I3067
sS'whitepetals'
p4283
I4306
sS'from'
p4284
I91
sS'overlaping'
p4285
I1337
sS'remains'
p4286
I2582
sS'patels'
p4287
I5157
sS'floery'
p4288
I3876
sS'seamless'
p4289
I2012
sS'quanity'
p4290
I3788
sS'next'
p4291
I952
sS'surrondinf'
p4292
I4419
sS'few'
p4293
I208
sS'aredull'
p4294
I3606
sS'coor9'
p4295
I3478
sS'darkerr'
p4296
I4997
sS'crab'
p4297
I1882
sS'iner'
p4298
I2214
sS'themselves'
p4299
I813
sS'pedicals'
p4300
I2692
sS'pleated'
p4301
I1540
sS'deepest'
p4302
I4235
sS'sort'
p4303
I1032
sS'pencil'
p4304
I2151
sS'yelow'
p4305
I1242
sS'comparison'
p4306
I1823
sS'started'
p4307
I3363
sS'becomes'
p4308
I1638
sS'tangerine'
p4309
I2254
sS'disclike'
p4310
I4683
sS'boxlike'
p4311
I3489
sS'dainy'
p4312
I3664
sS'organzied'
p4313
I4699
sS'girth'
p4314
I2565
sS'bullhorn'
p4315
I4618
sS'shadingf'
p4316
I5359
sS'sharply'
p4317
I505
sS'pateches'
p4318
I4984
sS'baby'
p4319
I1339
sS'actual'
p4320
I3055
sS'iin'
p4321
I5329
sS'triangularly'
p4322
I3595
sS'eloquent'
p4323
I4640
sS'hints'
p4324
I566
sS'swooping'
p4325
I3106
sS'tad'
p4326
I2292
sS'wtih'
p4327
I1504
sS'balls'
p4328
I1061
sS'arched'
p4329
I2340
sS'salad'
p4330
I2840
sS'f'
p4331
I2013
sS'this'
p4332
I6
sS'when'
p4333
I772
sS'bropwn'
p4334
I3487
sS'stroke'
p4335
I3037
sS'pisitil'
p4336
I2893
sS'pedaled'
p4337
I405
sS'dusted'
p4338
I2399
sS'pontes'
p4339
I4070
sS'obvious'
p4340
I1078
sS'thin'
p4341
I39
sS'perched'
p4342
I1558
sS'paints'
p4343
I3831
sS'indiividual'
p4344
I5389
sS'meet'
p4345
I877
sS'pouf'
p4346
I3637
sS'drops'
p4347
I898
sS'tpink'
p4348
I5306
sS'pikn'
p4349
I2683
sS'anmd'
p4350
I2669
sS'something'
p4351
I2465
sS'tat'
p4352
I1508
sS'wedge'
p4353
I1466
sS'od'
p4354
I4591
sS'hasyellow'
p4355
I3908
sS'bent'
p4356
I642
sS'do'
p4357
I1365
sS'pocket'
p4358
I4076
sS'sunlit'
p4359
I4034
sS'flaring'
p4360
I519
sS'slim'
p4361
I610
sS'trumped'
p4362
I1796
sS'madder'
p4363
I4404
sS'anemone'
p4364
I2972
sS'pieces'
p4365
I1376
sS'high'
p4366
I1266
sS'purplespots'
p4367
I5231
sS'stgma'
p4368
I1932
sS'nears'
p4369
I1881
sS'bend'
p4370
I636
sS'wwith'
p4371
I5365
sS'linesd'
p4372
I3488
sS'dominant'
p4373
I575
sS'tan'
p4374
I371
sS'made'
p4375
I191
sS'trumpet'
p4376
I128
sS'darkening'
p4377
I1559
sS'laender'
p4378
I5349
sS'magnificently'
p4379
I4236
sS'stemmed'
p4380
I1214
sS'batches'
p4381
I3913
sS'curving'
p4382
I805
sS'varied'
p4383
I1172
sS'sit'
p4384
I513
sS'skirt'
p4385
I1847
sS'purpose'
p4386
I5300
sS'six'
p4387
I199
sS'flaky'
p4388
I2175
sS'formations'
p4389
I1996
sS'arrangement'
p4390
I301
sS'regions'
p4391
I1331
sS'located'
p4392
I644
sS'burgandy'
p4393
I1813
sS'areorange'
p4394
I5114
sS'forest'
p4395
I1554
sS'animal'
p4396
I2009
sS'elliptical'
p4397
I1723
sS'instead'
p4398
I1041
sS'puckered'
p4399
I2047
sS'filament'
p4400
I122
sS'circular'
p4401
I201
sS'unsymmetrical'
p4402
I2320
sS'yellowish'
p4403
I297
sS'remniscent'
p4404
I3120
sS'stila'
p4405
I4416
sS'redtips'
p4406
I3464
sS'conceals'
p4407
I4573
sS'waviness'
p4408
I5362
sS'singular'
p4409
I559
sS'lings'
p4410
I5179
sS'peeling'
p4411
I2428
sS'waters'
p4412
I4531
sS'cranberry'
p4413
I3928
sS'billowy'
p4414
I2960
sS'collection'
p4415
I840
sS'ow'
p4416
I3959
sS'purp'
p4417
I2664
sS'structure'
p4418
I500
sS'seedy'
p4419
I2039
sS'purw'
p4420
I4875
sS'cabbage'
p4421
I2746
sS'wraping'
p4422
I4567
sS'psychedelic'
p4423
I4754
sS'wtigma'
p4424
I4100
sS'sorround'
p4425
I4831
sS'pincushion'
p4426
I3391
sS'diagonal'
p4427
I4604
sS'drape'
p4428
I1384
sS'light'
p4429
I36
sS'spattered'
p4430
I5414
sS'counter'
p4431
I4613
sS'lines'
p4432
I90
sS'element'
p4433
I1728
sS'scoop'
p4434
I1895
sS'thalamus'
p4435
I4502
sS'allow'
p4436
I4520
sS'clinging'
p4437
I4218
sS'lined'
p4438
I1154
sS'loud'
p4439
I5399
sS'longest'
p4440
I3105
sS'converging'
p4441
I5158
sS'holds'
p4442
I632
sS'saturated'
p4443
I4356
sS'piink'
p4444
I4990
sS'produces'
p4445
I3526
sS'ping'
p4446
I2226
sS'move'
p4447
I1333
sS'bugle'
p4448
I1261
sS'produced'
p4449
I4922
sS'whilst'
p4450
I2084
sS'largher'
p4451
I2222
sS'pistols'
p4452
I1320
sS'enclose'
p4453
I1106
sS'looks'
p4454
I290
sS'darl'
p4455
I4474
sS'shreds'
p4456
I4751
sS'stimen'
p4457
I4438
sS'ppurple'
p4458
I4677
sS'brittle'
p4459
I3361
sS'horny'
p4460
I2508
sS'bunch'
p4461
I206
sS'perfect'
p4462
I811
sS'horizontally'
p4463
I1223
sS'stimiga'
p4464
I5319
sS'le'
p4465
I4099
sS'outer'
p4466
I131
sS'twirly'
p4467
I4758
sS'masses'
p4468
I2572
sS'varies'
p4469
I1954
sS'stigm'
p4470
I2638
sS'enmbracing'
p4471
I3235
sS'coating'
p4472
I2269
sS'degrees'
p4473
I1946
sS'sigmas'
p4474
I3274
sS'cotta'
p4475
I4243
sS'orange'
p4476
I24
sS'clusters'
p4477
I308
sS'receptacles'
p4478
I607
sS'holiday'
p4479
I3894
sS'edging'
p4480
I722
sS'image'
p4481
I2643
sS'bya'
p4482
I3766
sS'empty'
p4483
I5361
sS'flex'
p4484
I940
sS'designs'
p4485
I870
sS'tears'
p4486
I5382
sS'orangey'
p4487
I2549
sS'greater'
p4488
I1380
sS'bolder'
p4489
I3619
sS'surrounds'
p4490
I473
sS'flour'
p4491
I2044
sS'outlined'
p4492
I892
sS'innermost'
p4493
I1398
sS'beads'
p4494
I2783
sS'oranges'
p4495
I1521
sS'dak'
p4496
I3813
sS'complete'
p4497
I1787
sS'hasp'
p4498
I5356
sS'asymmetrical'
p4499
I913
sS'stout'
p4500
I1588
sS'hands'
p4501
I2610
sS'front'
p4502
I976
sS'withi'
p4503
I3576
sS'scatter'
p4504
I4473
sS'transparent'
p4505
I1188
sS'peanut'
p4506
I5278
sS'serpentine'
p4507
I4284
sS'mixer'
p4508
I2709
sS'frayed'
p4509
I1656
sS'curlicues'
p4510
I4767
sS'radiant'
p4511
I1969
sS'traced'
p4512
I2373
sS'concave'
p4513
I1635
sS'identified'
p4514
I2408
sS'spur'
p4515
I5127
sS'trimmed'
p4516
I1054
sS'fuzz'
p4517
I4152
sS'pales'
p4518
I2061
sS'skinnier'
p4519
I3752
sS'batch'
p4520
I3164
sS'accompanied'
p4521
I489
sS'beneath'
p4522
I759
sS'paler'
p4523
I724
sS'incolo'
p4524
I3230
sS'upward'
p4525
I196
sS'whis'
p4526
I4281
sS'amoeba'
p4527
I5197
sS'florets'
p4528
I470
sS'haeart'
p4529
I4833
sS'verythin'
p4530
I2095
sS'lilac'
p4531
I433
sS'bump'
p4532
I4314
sS'variegate'
p4533
I3092
sS'globe'
p4534
I520
sS'fad'
p4535
I4797
sS'product'
p4536
I4329
sS'displaying'
p4537
I4403
sS'multicolored'
p4538
I281
sS'whitish'
p4539
I474
sS'lrge'
p4540
I2255
sS'shadding'
p4541
I4600
sS'jagged'
p4542
I296
sS'slumped'
p4543
I2589
sS'transitions'
p4544
I1543
sS'tubular'
p4545
I335
sS'mushroomy'
p4546
I4749
sS'special'
p4547
I1226
sS'out'
p4548
I119
sS'bunched'
p4549
I111
sS'littered'
p4550
I3104
sS'gossamer'
p4551
I2687
sS'ret'
p4552
I3923
sS'leavesa'
p4553
I3672
sS'discs'
p4554
I3008
sS'manyfold'
p4555
I1621
sS'bunches'
p4556
I524
sS'filiment'
p4557
I3416
sS'wich'
p4558
I2944
sS'delicated'
p4559
I2078
sS'custard'
p4560
I5332
sS'supports'
p4561
I2016
sS'reg'
p4562
I4054
sS'red'
p4563
I22
sS'oblong'
p4564
I169
sS'piecies'
p4565
I4711
sS'shut'
p4566
I4779
sS'staped'
p4567
I4333
sS'umbrella'
p4568
I1077
sS'redand'
p4569
I5184
sS'blackin'
p4570
I3869
sS'multicolor'
p4571
I2435
sS'splays'
p4572
I2697
sS'shotr'
p4573
I4166
sS'togetter'
p4574
I4377
sS'darkly'
p4575
I1534
sS'fractal'
p4576
I3743
sS'completely'
p4577
I591
sS'peadals'
p4578
I4059
sS'tied'
p4579
I2439
sS'complimenting'
p4580
I5249
sS'ridge'
p4581
I3123
sS'eedges'
p4582
I4962
sS'princess'
p4583
I3670
sS'log'
p4584
I4943
sS'scary'
p4585
I3775
sS'backwards'
p4586
I351
sS'cured'
p4587
I2723
sS'g'
p4588
I4534
sS'hugging'
p4589
I2910
sS'determining'
p4590
I5133
sS'could'
p4591
I1491
sS'shells'
p4592
I2314
sS'lanced'
p4593
I2518
sS'yarn'
p4594
I4303
sS'times'
p4595
I1934
sS'aren'
p4596
I2267
sS'length'
p4597
I601
sS'produce'
p4598
I2406
sS'sepolas'
p4599
I4651
sS'eratic'
p4600
I5202
sS'rufflings'
p4601
I3564
sS'lancet'
p4602
I2526
sS'designed'
p4603
I2393
sS'bulky'
p4604
I3095
sS'piney'
p4605
I4180
sS'staggered'
p4606
I1196
sS'semisheer'
p4607
I5351
sS'spoated'
p4608
I4865
sS'bouquet'
p4609
I1768
sS'arounded'
p4610
I4492
sS'powerful'
p4611
I3560
sS'scene'
p4612
I3692
sS'reaches'
p4613
I1512
sS'yello'
p4614
I1662
sS'floral'
p4615
I1167
sS'starkey'
p4616
I3430
sS'weak'
p4617
I3476
sS'sapel'
p4618
I1858
sS'flows'
p4619
I5113
sS'steams'
p4620
I1623
sS'umbrellas'
p4621
I2665
sS'oarnge'
p4622
I3157
sS'closing'
p4623
I5061
sS'multilayered'
p4624
I1764
sS'bull'
p4625
I4304
sS'laced'
p4626
I2826
sS'droop'
p4627
I478
sS'tubula'
p4628
I3740
sS'bears'
p4629
I4508
sS'polkadots'
p4630
I2430
sS'swaying'
p4631
I4720
sS'detailing'
p4632
I1153
sS'system'
p4633
I2775
sS'ripples'
p4634
I2196
sS'their'
p4635
I186
sS'intermediate'
p4636
I3734
sS'fray'
p4637
I4776
sS'balck'
p4638
I1862
sS'hexagon'
p4639
I1973
sS'wrapped'
p4640
I225
sS'rippled'
p4641
I826
sS'vile'
p4642
I4655
sS'perfectly'
p4643
I1386
sS'surmount'
p4644
I5163
sS'final'
p4645
I4109
sS'painful'
p4646
I5201
sS'inner'
p4647
I136
sS'raggity'
p4648
I4448
sS'tomato'
p4649
I5323
sS'originating'
p4650
I5348
sS'shell'
p4651
I895
sS'dabbed'
p4652
I5096
sS'lot'
p4653
I166
sS'shallow'
p4654
I985
sS'gradations'
p4655
I2123
sS'delegacy'
p4656
I3757
sS'feint'
p4657
I1738
sS'notices'
p4658
I4134
sS'edgest'
p4659
I4087
sS'sporadically'
p4660
I2896
sS'spurple'
p4661
I4411
sS'fuzzy'
p4662
I386
sS'july'
p4663
I2571
sS'scatted'
p4664
I5419
sS'transitioning'
p4665
I1780
sS'inners'
p4666
I1923
sS'steel'
p4667
I3610
sS'lightening'
p4668
I2343
sS'photograph'
p4669
I1950
sS'bid'
p4670
I4630
sS'prune'
p4671
I5072
sS'entwined'
p4672
I4725
sS'collectively'
p4673
I4030
sS'boring'
p4674
I3231
sS'distinguishes'
p4675
I871
sS'tigma'
p4676
I4244
sS'splayed'
p4677
I1576
sS'bed'
p4678
I925
sS'bee'
p4679
I963
sS'varicose'
p4680
I4426
sS'appealing'
p4681
I2205
sS'firework'
p4682
I1684
sS'loves'
p4683
I2345
sS'petaqls'
p4684
I4223
sS'elongate'
p4685
I1465
sS'spirl'
p4686
I4893
sS'providing'
p4687
I2810
sS'lovey'
p4688
I4545
sS'distinguished'
p4689
I1967
sS'spurs'
p4690
I3049
sS'tailed'
p4691
I5215
sS'sp'
p4692
I5411
sS'outwardly'
p4693
I2497
sS'lightly'
p4694
I586
sS'viewer'
p4695
I3378
sS'splatter'
p4696
I3060
sS'grayish'
p4697
I1050
sS'gently'
p4698
I1108
sS'curves'
p4699
I854
sS'gentle'
p4700
I1484
sS'recessed'
p4701
I1237
sS'veryt'
p4702
I1669
sS'have'
p4703
I43
sS'ovalshaped'
p4704
I1752
sS'throat'
p4705
I495
sS'curved'
p4706
I170
sS'border'
p4707
I845
sS'clearly'
p4708
I1244
sS'ringed'
p4709
I832
sS'hangingm'
p4710
I3681
sS'clove'
p4711
I3689
sS'angle'
p4712
I654
sS'smallest'
p4713
I1961
sS'pearly'
p4714
I4599
sS'layered'
p4715
I104
sS'layerred'
p4716
I5311
sS'mid'
p4717
I1367
sS'compacted'
p4718
I1693
sS'mix'
p4719
I1224
sS'sprinkled'
p4720
I2336
sS'altrnatimng'
p4721
I3931
sS'which'
p4722
I69
sS'hs'
p4723
I1755
sS'parkd'
p4724
I3972
sS'seductive'
p4725
I4615
sS'lily'
p4726
I991
sS'purple0'
p4727
I4397
sS'blades'
p4728
I1444
sS'filiments'
p4729
I1951
sS'edicel'
p4730
I5370
sS'swirls'
p4731
I2561
sS'petala'
p4732
I4465
sS'manor'
p4733
I4789
sS'centre'
p4734
I287
sS'raindrop'
p4735
I4872
sS'who'
p4736
I2136
sS'downard'
p4737
I2113
sS'stamnens'
p4738
I4960
sS'kleaves'
p4739
I3575
sS'petals'
p4740
I4
sS'suttle'
p4741
I4530
sS'eight'
p4742
I618
sS'but'
p4743
I256
sS'draws'
p4744
I2505
sS'peek'
p4745
I2802
sS'petaly'
p4746
I5141
sS'buishy'
p4747
I4449
sS'patche'
p4748
I4120
sS'lifght'
p4749
I4814
sS'purplem'
p4750
I3317
sS'purplel'
p4751
I4192
sS'starbust'
p4752
I3889
sS'appendenge'
p4753
I5208
sS'placement'
p4754
I4861
sS'withlarger'
p4755
I4450
sS'radiating'
p4756
I568
sS'shroud'
p4757
I5030
sS'eachother'
p4758
I1112
sS'gather'
p4759
I1695
sS'fountain'
p4760
I5183
sS'face'
p4761
I543
sS'sorta'
p4762
I3608
sS'prickly'
p4763
I617
sS'purpley'
p4764
I1794
sS'petels'
p4765
I2319
sS'pictures'
p4766
I2863
sS'wounded'
p4767
I3122
sS'skinny'
p4768
I115
sS'typical'
p4769
I2265
sS'painting'
p4770
I2126
sS'dying'
p4771
I2986
sS'purples'
p4772
I1353
sS'purpler'
p4773
I3088
sS'impression'
p4774
I2830
sS'emerging'
p4775
I902
sS'recess'
p4776
I3588
sS'kite'
p4777
I2963
sS'spindly'
p4778
I1274
sS'please'
p4779
I3817
sS'supported'
p4780
I467
sS'terminate'
p4781
I2976
sS'sule'
p4782
I4090
sS'colorfull'
p4783
I4470
sS'rotating'
p4784
I2028
sS'purely'
p4785
I2813
sS'woth'
p4786
I4332
sS'brine'
p4787
I3403
sS'parked'
p4788
I1609
sS'rough'
p4789
I577
sS'darkest'
p4790
I2203
sS'slanky'
p4791
I5189
sS'thicker'
p4792
I1306
sS'one'
p4793
I93
sS'o'
p4794
I1832
sS'seddlings'
p4795
I4430
sS'coloring'
p4796
I323
sS'based'
p4797
I1496
sS'tire'
p4798
I4774
sS'halves'
p4799
I2923
sS'tough'
p4800
I4884
sS'spost'
p4801
I5146
sS'combs'
p4802
I1730
sS'jar'
p4803
I2901
sS'mug'
p4804
I3374
sS'ruffed'
p4805
I3141
sS'eat'
p4806
I3397
sS'brighter'
p4807
I564
sS'rectangles'
p4808
I5288
sS'bases'
p4809
I539
sS'sunflowers'
p4810
I3834
sS'tinges'
p4811
I1500
sS'tropics'
p4812
I4786
sS'myriad'
p4813
I1905
sS'he'
p4814
I880
sS'thousands'
p4815
I2181
sS'horns'
p4816
I5397
sS'regularly'
p4817
I3127
sS'dges'
p4818
I4975
sS'skims'
p4819
I4539
sS'flowerand'
p4820
I5187
sS'sprouting'
p4821
I775
sS'colr'
p4822
I1651
sS'xcapsule'
p4823
I5409
sS'overall'
p4824
I920
sS'stripes'
p4825
I155
sS'bear'
p4826
I3086
sS'divisions'
p4827
I2275
sS'watercolor'
p4828
I2750
sS'abundance'
p4829
I954
sS'bean'
p4830
I2046
sS'ones'
p4831
I552
sS'petalos'
p4832
I3091
sS'beak'
p4833
I2453
sS'bead'
p4834
I2608
sS'upwardly'
p4835
I3450
sS'striped'
p4836
I177
sS'pendulous'
p4837
I5335
sS'poof'
p4838
I1732
sS'alternatelly'
p4839
I2481
sS'areas'
p4840
I865
sS'gray'
p4841
I422
sS'yellowed'
p4842
I3979
sS'evident'
p4843
I3354
sS'makings'
p4844
I3103
sS'ended'
p4845
I1321
sS'thatare'
p4846
I4501
sS'recetacele'
p4847
I5007
sS'comprising'
p4848
I4214
sS'dripped'
p4849
I2031
sS'unquie'
p4850
I2097
sS'staimin'
p4851
I4337
sS'linen'
p4852
I4434
sS'contain'
p4853
I858
sS'including'
p4854
I919
sS'grab'
p4855
I3422
sS'fixed'
p4856
I4462
sS'overllaping'
p4857
I2632
sS'squid'
p4858
I4963
sS'view'
p4859
I1248
sS'spotted'
p4860
I102
sS'pitel'
p4861
I3848
sS'shedding'
p4862
I3384
sS'vibrate'
p4863
I2178
sS'thiner'
p4864
I3723
sS'dishes'
p4865
I5260
sS'variations'
p4866
I2271
sS'frame'
p4867
I1351
sS'pointey'
p4868
I4175
sS'we'
p4869
I3984
sS'laevs'
p4870
I4141
sS'distantly'
p4871
I2570
sS'icing'
p4872
I4873
sS'fushia'
p4873
I1036
sS'wd'
p4874
I4385
sS'nthers'
p4875
I1756
sS'powder'
p4876
I1517
sS'enhanced'
p4877
I2823
sS'violet'
p4878
I194
sS'compliment'
p4879
I5160
sS'etchings'
p4880
I3111
sS'packed'
p4881
I533
sS'sparsely'
p4882
I665
sS'closer'
p4883
I299
sS'pansy'
p4884
I4106
sS'wire'
p4885
I2736
sS'attachment'
p4886
I4933
sS'closet'
p4887
I4935
sS'oted'
p4888
I5412
sS'pattern'
p4889
I204
sS'nature'
p4890
I1643
sS'segment'
p4891
I4650
sS'opval'
p4892
I3851
sS'pinker'
p4893
I1489
sS'purplelines'
p4894
I2551
sS'state'
p4895
I2595
sS'projecting'
p4896
I2060
sS'trapezoidal'
p4897
I4343
sS'lue'
p4898
I3236
sS'closed'
p4899
I339
sS'masking'
p4900
I4291
sS'piston'
p4901
I1157
sS'neither'
p4902
I1896
sS'pistol'
p4903
I397
sS'ermerging'
p4904
I4923
sS'fomation'
p4905
I3673
sS'hash'
p4906
I3419
sS'wiry'
p4907
I1600
sS'centr'
p4908
I3326
sS'ends'
p4909
I176
sS'handful'
p4910
I2248
sS'pronged'
p4911
I1004
sS'cauliflower'
p4912
I4229
sS'opening'
p4913
I487
sS'joy'
p4914
I3372
sS'hpaed'
p4915
I4926
sS'transluscent'
p4916
I3802
sS'forma'
p4917
I2587
sS'blossum'
p4918
I2317
sS'rope'
p4919
I4399
sS'nasturtium'
p4920
I5129
sS'lava'
p4921
I3107
sS'approval'
p4922
I2682
sS'dress'
p4923
I5270
sS'configuration'
p4924
I245
sS'nestle'
p4925
I5084
sS'staring'
p4926
I2933
sS'tiers'
p4927
I1341
sS'ouyter'
p4928
I4706
sS'willoy'
p4929
I3129
sS'ijcolor'
p4930
I4158
sS'yellowpatches'
p4931
I2122
sS'strap'
p4932
I4020
sS'taking'
p4933
I2449
sS'promenant'
p4934
I5336
sS'splotchy'
p4935
I1844
sS'equal'
p4936
I1205
sS'gtreen'
p4937
I4658
sS'middles'
p4938
I846
sS'folkded'
p4939
I4408
sS'grain'
p4940
I2670
sS'glory'
p4941
I4620
sS'visualized'
p4942
I3012
sS'immature'
p4943
I4189
sS'swim'
p4944
I4515
sS'puff'
p4945
I916
sS'elonggated'
p4946
I3176
sS'broom'
p4947
I3759
sS'glorious'
p4948
I4900
sS'otherwise'
p4949
I2961
sS'shapedd'
p4950
I4731
sS'strongly'
p4951
I2908
sS'gradates'
p4952
I1443
sS'rpu'
p4953
I3514
sS'bearing'
p4954
I2898
sS'basins'
p4955
I3797
sS'encompasses'
p4956
I2135
sS'narrower'
p4957
I2970
sS'flowerbis'
p4958
I3240
sS'invisible'
p4959
I2266
sS'carpels'
p4960
I4116
sS'gradated'
p4961
I1839
sS'buinched'
p4962
I4219
sS'smlaer'
p4963
I3121
sS'russet'
p4964
I2392
sS'walnut'
p4965
I5087
sS'incolor'
p4966
I588
sS'iny'
p4967
I3204
sS'insde'
p4968
I3744
sS'outsides'
p4969
I1616
sS'creat'
p4970
I4237
sS'rusty'
p4971
I2120
sS'addition'
p4972
I2092
sS'encapsulate'
p4973
I2982
sS'greenin'
p4974
I3351
sS'polka'
p4975
I550
sS'lt'
p4976
I4271
sS'conjoined'
p4977
I257
sS'aeveral'
p4978
I4331
sS'slowly'
p4979
I1180
sS'certain'
p4980
I2082
sS'emibating'
p4981
I4340
sS'feather'
p4982
I747
sS'protuberant'
p4983
I795
sS'fsepals'
p4984
I5002
sS'antlers'
p4985
I1979
sS'angled'
p4986
I1450
sS'puurple'
p4987
I3609
sS'mittlea'
p4988
I3709
sS'general'
p4989
I2851
sS'painted'
p4990
I2218
sS'demolitional'
p4991
I3366
sS'essentially'
p4992
I3245
sS'bulk'
p4993
I2920
sS'marropn'
p4994
I5417
sS'unpeeled'
p4995
I4834
sS'angles'
p4996
I1439
sS'covered'
p4997
I313
sS'budded'
p4998
I4852
sS'bulb'
p4999
I312
sS'aranged'
p5000
I1557
sS'present'
p5001
I1035
sS'encircles'
p5002
I2137
sS'multi'
p5003
I125
sS'bye'
p5004
I4041
sS'couple'
p5005
I355
sS'splits'
p5006
I2730
sS'unlike'
p5007
I2212
sS'spadix'
p5008
I3445
sS'wilt'
p5009
I2512
sS'plain'
p5010
I1091
sS'vanilla'
p5011
I2325
sS'appearance'
p5012
I215
sS'grasslike'
p5013
I3761
sS'shorters'
p5014
I4992
sS'rectangular'
p5015
I1118
sS'will'
p5016
I1192
sS'stunning'
p5017
I1292
sS'starshaoped'
p5018
I5360
sS'encircled'
p5019
I2305
sS'owns'
p5020
I3256
sS'wild'
p5021
I935
sS'chunky'
p5022
I4746
sS'ois'
p5023
I4390
sS'ombre'
p5024
I1076
sS'opal'
p5025
I5070
sS'greatly'
p5026
I3907
sS'pediceles'
p5027
I5150
sS'yellowpatch'
p5028
I3733
sS'layer'
p5029
I144
sS'annual'
p5030
I3297
sS'serveal'
p5031
I4540
sS'whiyt'
p5032
I4643
sS'almost'
p5033
I291
sS'ink'
p5034
I998
sS'thus'
p5035
I915
sS'site'
p5036
I2978
sS'surface'
p5037
I497
sS'voule'
p5038
I3777
sS'colowhiter'
p5039
I3503
sS'arrangements'
p5040
I1699
sS'dual'
p5041
I1883
sS'whorl'
p5042
I1152
sS'chambers'
p5043
I4967
sS'partner'
p5044
I3846
sS'sits'
p5045
I599
sS'conical'
p5046
I578
sS'gradients'
p5047
I2270
sS'ovalish'
p5048
I4802
sS'strucutre'
p5049
I3847
sS'whirl'
p5050
I1259
sS'kissed'
p5051
I2062
sS'dab'
p5052
I4946
sS'highlighter'
p5053
I2229
sS'polygon'
p5054
I4671
sS'generic'
p5055
I3808
sS'oink'
p5056
I1736
sS'balloon'
p5057
I2015
sS'concealing'
p5058
I1584
sS'cross'
p5059
I1074
sS'purlple'
p5060
I1875
sS'highlighted'
p5061
I696
sS'organge'
p5062
I3919
sS'flasks'
p5063
I3951
sS'parts'
p5064
I508
sS'geographical'
p5065
I3082
sS'largest'
p5066
I1394
sS'fower'
p5067
I1971
sS'stinryg'
p5068
I4023
sS'pleum'
p5069
I3299
sS'gets'
p5070
I728
sS'visibile'
p5071
I5318
sS'blooms'
p5072
I305
sS'difficult'
p5073
I2264
sS'stamen'
p5074
I21
sS'succulent'
p5075
I1909
sS'ball'
p5076
I266
sS'mango'
p5077
I4506
sS'eggplant'
p5078
I2159
sS'pedas'
p5079
I2514
sS'complemented'
p5080
I2110
sS'receptical'
p5081
I5162
sS'upon'
p5082
I646
sS'effect'
p5083
I1264
sS'octagon'
p5084
I2323
sS'tangled'
p5085
I2073
sS'whitsh'
p5086
I3425
sS'never'
p5087
I4784
sS'fierce'
p5088
I3219
sS'pedal'
p5089
I429
sS'puirpl'
p5090
I3114
sS'beehive'
p5091
I3983
sS'collar'
p5092
I2176
sS'tighter'
p5093
I890
sS'orabge'
p5094
I3200
sS'numbered'
p5095
I4894
sS'scaling'
p5096
I3331
sS'scarcely'
p5097
I4198
sS'koosh'
p5098
I4008
sS'off'
p5099
I302
sS'center'
p5100
I25
sS'i'
p5101
I605
sS'lightpurple'
p5102
I3009
sS'colour'
p5103
I1245
sS'overcast'
p5104
I3292
sS'well'
p5105
I53
sS'crystals'
p5106
I3572
sS'patterns'
p5107
I678
sS'theses'
p5108
I1568
sS'sets'
p5109
I942
sS'pistila'
p5110
I2909
sS'position'
p5111
I689
sS'dorm'
p5112
I4437
sS'con'
p5113
I5275
sS'arising'
p5114
I2452
sS'drawing'
p5115
I3368
sS'snake'
p5116
I3675
sS'spherical'
p5117
I587
sS'taller'
p5118
I5022
sS'closedly'
p5119
I3971
sS'liker'
p5120
I3149
sS'heavily'
p5121
I1281
sS'increasingly'
p5122
I2849
sS'identically'
p5123
I1660
sS'numbering'
p5124
I2930
sS'flies'
p5125
I3342
sS'mistaken'
p5126
I2639
sS'predicels'
p5127
I5209
sS'hasvrounded'
p5128
I5064
sS'pionts'
p5129
I3877
sS'fishing'
p5130
I3248
sS'merge'
p5131
I4862
sS'protecting'
p5132
I1183
sS'pedunculated'
p5133
I5080
sS'pilstil'
p5134
I5287
sS'lumpy'
p5135
I5297
sS'tonts'
p5136
I3735
sS'web'
p5137
I1924
sS'now'
p5138
I2335
sS'exquisite'
p5139
I3001
sS'field'
p5140
I1709
sS'bell'
p5141
I89
sS'sky'
p5142
I815
sS'lake'
p5143
I3737
sS'outlines'
p5144
I1349
sS'lattice'
p5145
I3255
sS'add'
p5146
I3394
sS'clustre'
p5147
I4027
sS'extends'
p5148
I1288
sS'attractive'
p5149
I1894
sS'tawny'
p5150
I5298
sS'wet'
p5151
I1221
sS'adn'
p5152
I3924
sS'barrow'
p5153
I4735
sS'twinged'
p5154
I3780
sS'match'
p5155
I1401
sS'boom'
p5156
I4590
sS'identical'
p5157
I1769
sS'canter'
p5158
I2210
sS'stanmen'
p5159
I3990
sS'branch'
p5160
I737
sS'kidney'
p5161
I5344
sS'smallstgma'
p5162
I4606
sS'interupted'
p5163
I4353
sS'downturned'
p5164
I1182
sS'crushed'
p5165
I2958
sS'ranunculus'
p5166
I3380
sS'rwith'
p5167
I2740
sS'goldenrod'
p5168
I2413
sS'five'
p5169
I68
sS'know'
p5170
I4080
sS'dish'
p5171
I1577
sS'bottoms'
p5172
I1414
sS'propeller'
p5173
I3030
sS'immediately'
p5174
I2537
sS'variants'
p5175
I4533
sS'prominent'
p5176
I152
sS'spead'
p5177
I3820
sS'meganta'
p5178
I4196
sS'flamingo'
p5179
I2967
sS'rumpled'
p5180
I1316
sS'like'
p5181
I48
sS'inviting'
p5182
I1714
sS'sizes'
p5183
I544
sS'bulge'
p5184
I2064
sS'vibrant'
p5185
I183
sS'porous'
p5186
I5145
sS'tons'
p5187
I2186
sS'candy'
p5188
I1853
sS'sized'
p5189
I400
sS'dancer'
p5190
I2886
sS'pinwheeled'
p5191
I3034
sS'slowery'
p5192
I5310
sS'become'
p5193
I558
sS'honeycombed'
p5194
I4148
sS'works'
p5195
I3053
sS'soft'
p5196
I80
sS'lisgh'
p5197
I4977
sS'imprints'
p5198
I1203
sS'likes'
p5199
I5226
sS'lager'
p5200
I1318
sS'smiple'
p5201
I4803
sS'delicalte'
p5202
I4132
sS'because'
p5203
I733
sS'smoothly'
p5204
I1083
sS'nucleus'
p5205
I5388
sS'lfower'
p5206
I3682
sS'basket'
p5207
I3462
sS'whtie'
p5208
I949
sS'majestic'
p5209
I4661
sS'growth'
p5210
I1379
sS'yeklow'
p5211
I2633
sS'kinds'
p5212
I2216
sS'peats'
p5213
I4209
sS'scales'
p5214
I2100
sS'bulbous'
p5215
I503
sS'leaf'
p5216
I205
sS'shrub'
p5217
I2845
sS'pompom'
p5218
I1095
sS'overlay'
p5219
I2895
sS'broad'
p5220
I159
sS'pestles'
p5221
I3985
sS'overlap'
p5222
I279
sS'uvule'
p5223
I3446
sS'does'
p5224
I1040
sS'likepetals'
p5225
I3891
sS'midst'
p5226
I5124
sS'ripped'
p5227
I4250
sS'pettals'
p5228
I4804
sS'lavende'
p5229
I3677
sS'funnel'
p5230
I234
sS'rasberry'
p5231
I5003
sS'trap'
p5232
I2388
sS'platinum'
p5233
I4764
sS'thinly'
p5234
I1486
sS'coated'
p5235
I2773
sS'proud'
p5236
I5285
sS'reaching'
p5237
I1144
sS'dangling'
p5238
I3561
sS'aster'
p5239
I1685
sS'arrnaged'
p5240
I1682
sS'midsections'
p5241
I4921
sS'dotsd'
p5242
I5413
sS'petty'
p5243
I1493
sS'variation'
p5244
I2199
sS'although'
p5245
I2128
sS'offset'
p5246
I1511
sS'snapped'
p5247
I3330
sS'fluorescent'
p5248
I1634
sS'r'
p5249
I2686
sS'tiups'
p5250
I4193
sS'periodically'
p5251
I4631
sS'swept'
p5252
I3471
sS'hiding'
p5253
I886
sS'iris'
p5254
I1746
sS'about'
p5255
I402
sS'quills'
p5256
I1121
sS'indented'
p5257
I1647
sS'extension'
p5258
I4161
sS'getting'
p5259
I780
sS'column'
p5260
I789
sS'pedicela'
p5261
I1538
sS'ribbed'
p5262
I456
sS'pedicele'
p5263
I4160
sS'bearded'
p5264
I2331
sS'carries'
p5265
I1583
sS'seeds'
p5266
I750
sS'beige'
p5267
I620
sS'yellowbpetals'
p5268
I3199
sS'perky'
p5269
I4745
sS'fleshy'
p5270
I1516
sS'tongue'
p5271
I1381
sS'pedicels'
p5272
I363
sS'patern'
p5273
I4867
sS'blacklines'
p5274
I3359
sS'tiips'
p5275
I3461
sS'equally'
p5276
I1277
sS'own'
p5277
I1056
sS'withragged'
p5278
I3662
sS'enough'
p5279
I4305
sS'lenght'
p5280
I4488
sS'anthetrs'
p5281
I2727
sS'articulate'
p5282
I4765
sS'loner'
p5283
I2722
sS'mushrooms'
p5284
I2424
sS'en'
p5285
I4190
sS'brush'
p5286
I1334
sS'female'
p5287
I3069
sS'cingular'
p5288
I2998
sS'roads'
p5289
I4174
sS'wihte'
p5290
I4541
sS'blower'
p5291
I3589
sS'encased'
p5292
I1822
sS'floded'
p5293
I3999
sS'brilliantly'
p5294
I2163
sS'folliage'
p5295
I3845
sS'maize'
p5296
I3309
sS'stamins'
p5297
I2141
sS'scrollwork'
p5298
I4346
sS'concentrically'
p5299
I1488
sS'additional'
p5300
I2390
sS'thisf'
p5301
I2463
sS'puplre'
p5302
I4105
sS'housing'
p5303
I1941
sS'populated'
p5304
I4259
sS'spiral'
p5305
I413
sS'spots'
p5306
I81
sS'stamina'
p5307
I1878
sS'lonely'
p5308
I3266
sS'bees'
p5309
I1238
sS'vein'
p5310
I624
sS'polentube'
p5311
I4924
sS'biggest'
p5312
I3702
sS'spotd'
p5313
I3173
sS'upwards'
p5314
I211
sS'aare'
p5315
I5109
sS'naturally'
p5316
I3764
sS'gap'
p5317
I4667
sS'sepuls'
p5318
I3203
sS'ivory'
p5319
I993
sS'buy'
p5320
I1745
sS'cylindrically'
p5321
I4840
sS'bur'
p5322
I3349
sS'tinged'
p5323
I555
sS'triangular'
p5324
I345
sS'overlapping'
p5325
I95
sS'contiinuous'
p5326
I4050
sS'reminds'
p5327
I1448
sS'neutral'
p5328
I4829
sS'tapers'
p5329
I1650
sS'bifid'
p5330
I3442
sS'cheatah'
p5331
I5264
sS'ha'
p5332
I1179
sS'bug'
p5333
I1793
sS'bud'
p5334
I481
sS'partially'
p5335
I1033
sS'texturized'
p5336
I4830
sS'dozens'
p5337
I638
sS'wise'
p5338
I3041
sS'apiece'
p5339
I4944
sS'places'
p5340
I2685
sS'broade'
p5341
I5104
sS'incolro'
p5342
I5346
sS'dangerous'
p5343
I3223
sS'daffodil'
p5344
I1945
sS'smooth'
p5345
I56
sS'flip'
p5346
I2906
sS'broadr'
p5347
I3367
sS'placed'
p5348
I859
sS'below'
p5349
I374
sS'gaps'
p5350
I1767
sS'downards'
p5351
I4401
sS'overlapiing'
p5352
I4704
sS'cerulean'
p5353
I3582
sS'cake'
p5354
I3015
sS'piece'
p5355
I1519
sS'leathery'
p5356
I1093
sS'display'
p5357
I1228
sS'chip'
p5358
I5291
sS'thirteen'
p5359
I2962
sS'profusion'
p5360
I2691
sS'unfolding'
p5361
I2332
sS'settled'
p5362
I3333
sS'lobed'
p5363
I927
sS'pin'
p5364
I755
sS'pedicel'
p5365
I35
sS'int'
p5366
I2433
sS'pedestal'
p5367
I2721
sS'kisses'
p5368
I3271
sS'sepul'
p5369
I2843
sS'maroon'
p5370
I241
sS'twist'
p5371
I1015
sS'separating'
p5372
I4072
sS'lobes'
p5373
I2431
sS'ghe'
p5374
I3942
sS'hasorange'
p5375
I5083
sS'vines'
p5376
I1400
sS'ptals'
p5377
I1307
sS'brite'
p5378
I5126
sS'flight'
p5379
I2056
sS'reflecting'
p5380
I3381
sS'shooting'
p5381
I1070
sS'pit'
p5382
I2678
sS'ina'
p5383
I2302
sS'inc'
p5384
I705
sS'flament'
p5385
I3816
sS'terra'
p5386
I4242
sS'compared'
p5387
I1848
sS'relaxing'
p5388
I2912
sS'variety'
p5389
I1104
sS'aregreen'
p5390
I4932
sS'sexual'
p5391
I1775
sS'45'
p5392
I3405
sS'oak'
p5393
I5086
sS'detail'
p5394
I1124
sS'andyellow'
p5395
I4299
sS'smears'
p5396
I3025
sS'other'
p5397
I150
sS'progresses'
p5398
I3699
sS'details'
p5399
I614
sS'spirally'
p5400
I1204
sS'mass'
p5401
I748
sS'incredibly'
p5402
I2219
sS'predominant'
p5403
I1771
sS'illusion'
p5404
I4127
sS'sloping'
p5405
I2121
sS'lance'
p5406
I2296
sS'longitudinally'
p5407
I5173
sS'star'
p5408
I101
sS'haslarge'
p5409
I3861
sS'stenmen'
p5410
I4589
sS'shredded'
p5411
I1000
sS'stringy'
p5412
I127
sS'radially'
p5413
I1088
sS'bundle'
p5414
I899
sS'stay'
p5415
I1952
sS'tinier'
p5416
I5294
sS'kinda'
p5417
I3961
sS'supple'
p5418
I5054
sS'stam'
p5419
I3492
sS'chiming'
p5420
I5236
sS'coloration'
p5421
I569
sS'opened'
p5422
I663
sS'droplet'
p5423
I2627
sS'singel'
p5424
I5262
sS'whiting'
p5425
I4783
sS'described'
p5426
I2577
sS'aggressive'
p5427
I4914
sS'jewel'
p5428
I2020
sS'original'
p5429
I2854
sS'pollinaters'
p5430
I5194
sS'portion'
p5431
I763
sS'laveneder'
p5432
I4757
sS'tightest'
p5433
I4572
sS'tulips'
p5434
I5012
sS'yell'
p5435
I2519
sS'pods'
p5436
I1683
sS'sttle'
p5437
I3456
ssS'unk_id'
p5438
I5429
sS'end_id'
p5439
I2
sS'start_id'
p5440
I1
sS'reverse_vocab'
p5441
(lp5442
g3005
ag1587
ag2380
ag3179
ag4740
ag1974
ag4332
ag1069
ag3516
ag2602
ag3039
ag1028
ag1933
ag16
ag1923
ag958
ag1646
ag948
ag1139
ag2534
ag2216
ag5074
ag4563
ag331
ag4476
ag5100
ag3831
ag3958
ag2793
ag2527
ag2641
ag2071
ag2153
ag214
ag2444
ag5365
ag4429
ag2800
ag2354
ag4341
ag3678
ag2765
ag3065
ag4703
ag1715
ag4276
ag106
ag2197
ag5181
ag1947
ag2862
ag1136
ag2643
ag5105
ag3773
ag158
ag5345
ag1390
ag3828
ag2749
ag2435
ag3880
ag124
ag950
ag3871
ag1410
ag1950
ag1352
ag5169
ag4722
ag3083
ag1568
ag4209
ag2094
ag4148
ag1448
ag1171
ag3041
ag2307
ag526
ag5196
ag5306
ag2609
ag2797
ag1816
ag3185
ag1786
ag98
ag1781
ag5141
ag4432
ag4284
ag982
ag4793
ag1489
ag5325
ag2625
ag2280
ag1515
ag2639
ag933
ag5408
ag4860
ag3902
ag4715
ag903
ag186
ag1267
ag1754
ag2499
ag1194
ag4549
ag2638
ag1308
ag94
ag4768
ag2879
ag415
ag3762
ag4548
ag382
ag1185
ag4400
ag1367
ag2954
ag5003
ag4025
ag5412
ag4376
ag2180
ag2712
ag4466
ag537
ag2941
ag511
ag3809
ag4647
ag4038
ag716
ag2308
ag2923
ag1510
ag2021
ag679
ag5029
ag2574
ag2202
ag4000
ag3820
ag1209
ag5397
ag4246
ag5176
ag290
ag2911
ag4825
ag3213
ag3377
ag395
ag5220
ag18
ag2970
ag4119
ag889
ag1243
ag200
ag4653
ag3860
ag1134
ag4564
ag4706
ag3948
ag2355
ag173
ag2039
ag338
ag4909
ag4836
ag32
ag2718
ag1389
ag2731
ag3472
ag5185
ag3925
ag3534
ag4635
ag1245
ag3665
ag1138
ag1932
ag4375
ag3364
ag440
ag4878
ag547
ag4525
ag1827
ag1708
ag4387
ag1736
ag4401
ag3544
ag956
ag4889
ag5216
ag4461
ag4245
ag4293
ag3660
ag2548
ag5314
ag1624
ag3909
ag2990
ag5012
ag2315
ag4030
ag2090
ag4176
ag2089
ag1679
ag1940
ag2634
ag2112
ag4640
ag3935
ag2318
ag926
ag1135
ag2178
ag3590
ag3571
ag477
ag5230
ag3928
ag1193
ag3324
ag2535
ag3454
ag3206
ag5370
ag2454
ag1090
ag345
ag4924
ag2530
ag3250
ag2989
ag1050
ag1087
ag2785
ag3786
ag3036
ag3451
ag1269
ag4743
ag4977
ag1903
ag398
ag3751
ag3654
ag284
ag285
ag2092
ag3292
ag5076
ag1738
ag3267
ag1703
ag2270
ag1907
ag3033
ag3983
ag2882
ag1010
ag3016
ag3503
ag3609
ag5222
ag698
ag4538
ag1393
ag1567
ag1768
ag1861
ag800
ag4734
ag1989
ag3730
ag4454
ag5033
ag2774
ag1454
ag3523
ag3055
ag4542
ag4403
ag2538
ag4883
ag1033
ag4390
ag5099
ag29
ag2104
ag5072
ag2830
ag2018
ag4477
ag2044
ag3070
ag2667
ag4999
ag4997
ag613
ag292
ag2463
ag3591
ag76
ag3421
ag45
ag1108
ag1778
ag4796
ag2278
ag3322
ag3490
ag3415
ag3467
ag780
ag1372
ag96
ag4129
ag1770
ag1685
ag4545
ag4184
ag3605
ag760
ag4899
ag2329
ag971
ag39
ag3077
ag2653
ag5324
ag3298
ag1766
ag3659
ag2464
ag374
ag4586
ag3097
ag1665
ag987
ag5005
ag1929
ag2013
ag4040
ag2345
ag2137
ag1560
ag2567
ag5272
ag2873
ag2722
ag1224
ag2413
ag1905
ag1283
ag616
ag4374
ag2004
ag3987
ag5349
ag2353
ag1472
ag2922
ag3657
ag121
ag2822
ag2735
ag22
ag2702
ag3565
ag1622
ag4662
ag3861
ag3520
ag3091
ag1617
ag2572
ag1198
ag3714
ag1344
ag3974
ag216
ag4903
ag21
ag2189
ag5189
ag2387
ag5255
ag632
ag676
ag4337
ag3837
ag3268
ag3991
ag1505
ag3474
ag1320
ag1314
ag5305
ag3514
ag3538
ag523
ag2664
ag656
ag1934
ag3349
ag2909
ag4841
ag843
ag419
ag3149
ag2584
ag4203
ag984
ag5089
ag1035
ag1240
ag1137
ag4531
ag1451
ag1512
ag4048
ag209
ag1615
ag638
ag1156
ag3821
ag2678
ag4097
ag3018
ag3484
ag3740
ag3877
ag2291
ag381
ag2566
ag3529
ag4255
ag2553
ag802
ag147
ag5262
ag2093
ag1984
ag4280
ag2080
ag4168
ag402
ag3313
ag115
ag2198
ag1871
ag4780
ag408
ag2764
ag4528
ag1307
ag4116
ag4490
ag4539
ag2843
ag363
ag3886
ag4627
ag3795
ag731
ag5334
ag1437
ag1065
ag1880
ag1569
ag4192
ag4913
ag140
ag4521
ag867
ag1444
ag3469
ag2542
ag2854
ag4705
ag3404
ag5037
ag2842
ag83
ag4418
ag1675
ag2473
ag5215
ag3984
ag4317
ag882
ag2411
ag5064
ag3480
ag618
ag1212
ag906
ag4384
ag4194
ag2714
ag2815
ag2185
ag3599
ag4360
ag4534
ag3240
ag3810
ag2242
ag4556
ag2182
ag2061
ag1500
ag1159
ag3382
ag2996
ag472
ag388
ag4881
ag3044
ag2014
ag1412
ag114
ag3076
ag4809
ag4258
ag1570
ag2939
ag4761
ag5183
ag213
ag2671
ag1203
ag55
ag654
ag4975
ag1948
ag4831
ag3461
ag453
ag5323
ag438
ag2170
ag5193
ag4409
ag986
ag376
ag754
ag4058
ag4807
ag1183
ag4324
ag2327
ag4756
ag5421
ag3393
ag3316
ag1520
ag138
ag2705
ag4373
ag617
ag4789
ag5046
ag2984
ag3891
ag3386
ag4073
ag1901
ag1324
ag1701
ag4694
ag5117
ag4966
ag2578
ag1091
ag4577
ag2754
ag470
ag989
ag168
ag1741
ag723
ag540
ag5045
ag4281
ag4597
ag3628
ag2167
ag2703
ag5101
ag1037
ag4478
ag3508
ag332
ag4361
ag254
ag3155
ag560
ag5399
ag4054
ag2928
ag4763
ag4742
ag2768
ag5267
ag412
ag3840
ag2847
ag5310
ag2872
ag1241
ag4210
ag821
ag2399
ag1092
ag3996
ag4442
ag4234
ag4121
ag184
ag4370
ag1769
ag5337
ag943
ag1882
ag265
ag4356
ag3611
ag4392
ag4215
ag5082
ag2416
ag3967
ag3134
ag2492
ag2227
ag2430
ag1493
ag4712
ag642
ag3830
ag2407
ag1053
ag1247
ag3438
ag445
ag1623
ag5422
ag2618
ag4882
ag2465
ag572
ag1965
ag40
ag619
ag1436
ag965
ag1657
ag1618
ag303
ag2710
ag1335
ag5107
ag939
ag386
ag3705
ag3922
ag1893
ag3936
ag525
ag1022
ag1231
ag2111
ag5111
ag1146
ag2261
ag3943
ag1782
ag1637
ag2393
ag5061
ag1492
ag1848
ag3175
ag1263
ag1906
ag89
ag1405
ag444
ag5384
ag2521
ag794
ag2121
ag127
ag232
ag2890
ag1513
ag3513
ag1734
ag2518
ag2839
ag1743
ag3895
ag1780
ag3790
ag109
ag4480
ag3160
ag4523
ag2223
ag2562
ag1690
ag5070
ag3434
ag1747
ag3937
ag3990
ag5203
ag1085
ag4078
ag2826
ag5160
ag2857
ag1798
ag2545
ag1282
ag894
ag3401
ag2975
ag2606
ag2910
ag4982
ag5401
ag92
ag5266
ag3031
ag1494
ag1682
ag1093
ag5364
ag144
ag3876
ag2560
ag4522
ag846
ag427
ag4051
ag5431
ag3273
ag3284
ag4007
ag253
ag4156
ag2962
ag1918
ag474
ag4333
ag765
ag962
ag4821
ag465
ag314
ag720
ag1936
ag5259
ag3396
ag784
ag1330
ag2455
ag890
ag102
ag899
ag586
ag5260
ag2597
ag4085
ag3572
ag1438
ag2017
ag4983
ag1979
ag2819
ag1361
ag93
ag4098
ag678
ag2610
ag347
ag3716
ag4382
ag1847
ag15
ag1326
ag1059
ag2505
ag4462
ag3395
ag4299
ag1428
ag5142
ag478
ag823
ag4256
ag1083
ag571
ag4096
ag1683
ag862
ag2580
ag2886
ag4641
ag3684
ag3440
ag2479
ag2613
ag2603
ag4709
ag641
ag3172
ag2930
ag554
ag3583
ag1924
ag3618
ag4415
ag1707
ag3081
ag1475
ag804
ag4707
ag4938
ag1888
ag704
ag1061
ag1081
ag3560
ag3289
ag3597
ag4699
ag1996
ag2255
ag997
ag4853
ag5348
ag3338
ag3694
ag3899
ag1114
ag2208
ag4840
ag684
ag3156
ag1597
ag2279
ag4485
ag4675
ag4114
ag1507
ag3348
ag2388
ag1972
ag4345
ag811
ag630
ag4814
ag3868
ag841
ag955
ag4083
ag2347
ag5253
ag2621
ag957
ag4160
ag5093
ag3600
ag4492
ag3123
ag1518
ag4651
ag2391
ag4272
ag4347
ag5414
ag3007
ag4274
ag4775
ag3423
ag2143
ag233
ag59
ag1818
ag157
ag2851
ag1012
ag2790
ag414
ag4499
ag730
ag5035
ag4945
ag696
ag975
ag4854
ag4824
ag2470
ag3859
ag3776
ag851
ag4678
ag259
ag5363
ag4147
ag1840
ag2884
ag1759
ag1479
ag3502
ag856
ag5021
ag545
ag2394
ag2478
ag2249
ag4484
ag2838
ag5109
ag2914
ag1312
ag1162
ag2817
ag2175
ag2827
ag5208
ag1189
ag2173
ag4291
ag1865
ag4829
ag3550
ag1284
ag3035
ag2122
ag1235
ag3664
ag245
ag3774
ag4679
ag1889
ag3265
ag58
ag2211
ag2047
ag4080
ag4180
ag1718
ag3239
ag3940
ag3402
ag1421
ag4502
ag1039
ag2770
ag1558
ag3412
ag2063
ag3333
ag3650
ag4024
ag4654
ag1894
ag988
ag4242
ag1787
ag3212
ag4726
ag1244
ag5319
ag430
ag4240
ag2917
ag2358
ag5034
ag763
ag5411
ag4218
ag3966
ag385
ag4911
ag2364
ag614
ag1062
ag1299
ag1442
ag2064
ag2805
ag3058
ag3938
ag1485
ag5371
ag3884
ag3236
ag1088
ag670
ag2816
ag2629
ag221
ag1126
ag1897
ag2906
ag1855
ag3568
ag489
ag1435
ag2333
ag772
ag4303
ag5335
ag850
ag5001
ag4873
ag2056
ag3578
ag546
ag5224
ag4398
ag3824
ag291
ag1538
ag3353
ag3787
ag2999
ag1595
ag3635
ag4697
ag3896
ag3813
ag544
ag4516
ag898
ag5277
ag2876
ag3431
ag2780
ag2789
ag4328
ag4163
ag3397
ag4062
ag2344
ag1533
ag2417
ag1447
ag356
ag5381
ag876
ag581
ag3563
ag5059
ag1887
ag5024
ag4568
ag4340
ag1385
ag583
ag2888
ag3128
ag5204
ag139
ag217
ag4094
ag2608
ag5413
ag2576
ag505
ag5010
ag3074
ag5356
ag4011
ag5218
ag4200
ag130
ag3736
ag3711
ag536
ag3857
ag183
ag2633
ag5389
ag3151
ag4453
ag2840
ag4698
ag1839
ag2657
ag2924
ag4758
ag3199
ag2590
ag1952
ag3671
ag2734
ag5015
ag4196
ag1866
ag5256
ag3119
ag3630
ag5394
ag4018
ag3125
ag3629
ag348
ag2147
ag2283
ag3814
ag3512
ag2214
ag4061
ag871
ag227
ag1406
ag3732
ag306
ag2812
ag1417
ag3230
ag4188
ag5237
ag52
ag1601
ag1717
ag2426
ag223
ag1689
ag1119
ag5042
ag4632
ag4438
ag3323
ag3483
ag4901
ag1441
ag2055
ag2715
ag2709
ag2294
ag2115
ag2690
ag70
ag3710
ag4615
ag2918
ag2556
ag513
ag1935
ag4383
ag1281
ag329
ag1205
ag2398
ag156
ag198
ag5332
ag4979
ag238
ag5164
ag5132
ag3136
ag864
ag2818
ag336
ag4505
ag1096
ag1820
ag2405
ag5016
ag3310
ag1967
ag3864
ag4606
ag2776
ag3934
ag204
ag2628
ag1403
ag2753
ag5198
ag5400
ag4936
ag2203
ag3201
ag3453
ag99
ag1578
ag23
ag3164
ag4130
ag4380
ag3262
ag4207
ag3823
ag1133
ag3228
ag1927
ag5151
ag2440
ag4463
ag4719
ag3804
ag4547
ag4028
ag5357
ag2624
ag3579
ag2642
ag1174
ag1793
ag3309
ag3417
ag1904
ag4701
ag5309
ag612
ag4249
ag838
ag4305
ag710
ag4708
ag5103
ag2275
ag3465
ag4859
ag909
ag522
ag2233
ag1966
ag3215
ag1720
ag426
ag1467
ag1672
ag3109
ag5050
ag753
ag4448
ag3887
ag491
ag5083
ag122
ag4366
ag3509
ag479
ag1687
ag541
ag835
ag3793
ag3971
ag4778
ag2019
ag2423
ag5276
ag4057
ag3166
ag2959
ag5121
ag1867
ag907
ag1031
ag1286
ag1875
ag3087
ag5148
ag1070
ag2601
ag406
ag5017
ag3161
ag321
ag3177
ag2199
ag1920
ag3487
ag2264
ag1067
ag3559
ag1502
ag2313
ag56
ag344
ag4792
ag5377
ag3105
ag3366
ag2581
ag270
ag4036
ag935
ag4009
ag1181
ag5180
ag1555
ag5200
ag1000
ag4452
ag4845
ag4074
ag1188
ag1272
ag3050
ag1796
ag1303
ag155
ag1327
ag877
ag4391
ag4022
ag4447
ag5286
ag1246
ag2188
ag4285
ag4201
ag4319
ag3853
ag4927
ag3718
ag2373
ag251
ag729
ag4232
ag598
ag3021
ag5144
ag1956
ag4867
ag494
ag4772
ag1321
ag335
ag3722
ag600
ag3485
ag3344
ag2272
ag436
ag3154
ag587
ag620
ag4357
ag996
ag4717
ag2113
ag786
ag3067
ag627
ag2247
ag1535
ag358
ag2300
ag4365
ag647
ag3259
ag5210
ag4488
ag5271
ag1775
ag3964
ag4428
ag2298
ag4643
ag1254
ag2841
ag3725
ag2439
ag3832
ag1433
ag2365
ag5066
ag1729
ag137
ag1919
ag4493
ag1845
ag5376
ag5155
ag3731
ag1292
ag655
ag337
ag3728
ag1774
ag2745
ag4223
ag709
ag1260
ag1655
ag3414
ag5172
ag3528
ag4115
ag1992
ag3642
ag1697
ag3920
ag3829
ag2438
ag974
ag640
ag339
ag3144
ag495
ag3539
ag3339
ag2349
ag3406
ag1553
ag2023
ag912
ag1197
ag1779
ag1722
ag693
ag4996
ag473
ag4138
ag3371
ag4952
ag4728
ag592
ag3101
ag1831
ag5327
ag3536
ag4986
ag1298
ag1815
ag1805
ag688
ag1858
ag1790
ag4102
ag3742
ag1215
ag1691
ag91
ag1930
ag1228
ag2987
ag4685
ag4353
ag2514
ag3234
ag3979
ag3220
ag2157
ag1377
ag3791
ag1878
ag1881
ag38
ag1480
ag4053
ag1721
ag1631
ag2682
ag3411
ag4270
ag4700
ag2616
ag5234
ag3729
ag5299
ag4893
ag2733
ag4591
ag3373
ag5243
ag822
ag2963
ag4797
ag1712
ag1402
ag2348
ag4811
ag1262
ag3785
ag2037
ag4327
ag1659
ag1388
ag2796
ag4352
ag1915
ag171
ag5246
ag4613
ag475
ag4133
ag3890
ag5270
ag4876
ag4271
ag5355
ag3874
ag4495
ag3942
ag1767
ag663
ag3766
ag4226
ag2126
ag976
ag1961
ag1744
ag3124
ag1216
ag577
ag4575
ag3835
ag530
ag1946
ag5261
ag665
ag4301
ag3225
ag4155
ag4544
ag556
ag533
ag1460
ag297
ag1760
ag1525
ag3715
ag1589
ag732
ag1686
ag4395
ag1648
ag4198
ag5000
ag4342
ag4377
ag2945
ag4140
ag930
ag2010
ag1226
ag2811
ag1462
ag2119
ag5108
ag2031
ag281
ag2451
ag1772
ag3365
ag1387
ag1072
ag4677
ag5171
ag839
ag1169
ag2701
ag1232
ag1764
ag5265
ag5058
ag1210
ag3976
ag1911
ag4500
ag4267
ag3197
ag3633
ag2951
ag1030
ag310
ag466
ag222
ag2810
ag1995
ag2557
ag4907
ag1360
ag776
ag2697
ag1543
ag3418
ag373
ag1663
ag2617
ag4788
ag968
ag1958
ag3702
ag2798
ag657
ag399
ag4969
ag3608
ag891
ag319
ag3020
ag4555
ag542
ag4620
ag1639
ag3975
ag3955
ag2336
ag2267
ag1799
ag1329
ag1824
ag170
ag588
ag5248
ag4513
ag3862
ag500
ag4308
ag4076
ag3285
ag2101
ag484
ag4890
ag2002
ag2083
ag1238
ag5257
ag2778
ag3229
ag5329
ag4822
ag2166
ag3510
ag3717
ag2106
ag4509
ag3374
ag286
ag970
ag5123
ag1275
ag4614
ag3145
ag1105
ag1949
ag2713
ag2626
ag1542
ag4702
ag3478
ag3276
ag4220
ag3667
ag1851
ag631
ag1098
ag658
ag3699
ag3734
ag1653
ag3367
ag5240
ag5436
ag4682
ag5239
ag2372
ag3604
ag1016
ag3933
ag1222
ag1667
ag2190
ag4718
ag1539
ag4759
ag3662
ag1258
ag2020
ag5040
ag1293
ag2786
ag123
ag3331
ag1208
ag111
ag2130
ag2648
ag2204
ag5140
ag3378
ag497
ag3626
ag4079
ag5182
ag2565
ag82
ag3460
ag552
ag3369
ag2981
ag273
ag330
ag4397
ag361
ag4248
ag1394
ag3346
ag4433
ag1704
ag4802
ag1160
ag4838
ag1248
ag1078
ag392
ag5056
ag422
ag4657
ag1032
ag963
ag3517
ag4167
ag601
ag3686
ag5320
ag5254
ag1694
ag623
ag1297
ag4269
ag2052
ag4704
ag2367
ag2937
ag4723
ag4875
ag1776
ag299
ag681
ag1998
ag2171
ag1386
ag1233
ag4624
ag1941
ag1669
ag5350
ag4609
ag5157
ag1199
ag5403
ag3537
ag1338
ag2105
ag5391
ag1380
ag241
ag917
ag396
ag4665
ag1047
ag3004
ag1511
ag3319
ag34
ag2418
ag4497
ag3069
ag2458
ag4046
ag3910
ag4257
ag5333
ag4764
ag833
ag4362
ag3159
ag1311
ag224
ag1277
ag2402
ag2944
ag1693
ag994
ag3779
ag2551
ag2662
ag812
ag2422
ag624
ag4154
ag3789
ag4393
ag904
ag1594
ag2635
ag1141
ag2555
ag2903
ag103
ag3328
ag5292
ag4306
ag575
ag2078
ag1223
ag733
ag3637
ag4175
ag4204
ag1644
ag4794
ag4190
ag4279
ag3360
ag3687
ag391
ag2162
ag4961
ag2328
ag3457
ag3356
ag1645
ag4935
ag3763
ag1153
ag4385
ag5387
ag1985
ag2561
ag2000
ag3158
ag5188
ag1474
ag3257
ag3554
ag2350
ag4618
ag434
ag1382
ag3075
ag4638
ag2376
ag2220
ag1830
ag1654
ag151
ag3152
ag1488
ag2692
ag2124
ag1986
ag722
ag2403
ag5060
ag4017
ag3150
ag5307
ag1942
ag3929
ag4369
ag4297
ag5041
ag3741
ag1452
ag3073
ag2913
ag1925
ag1660
ag1959
ag4109
ag2498
ag806
ag5149
ag4434
ag4902
ag2742
ag1700
ag1544
ag1343
ag2363
ag755
ag3022
ag3459
ag4813
ag1874
ag999
ag1625
ag5075
ag687
ag689
ag3768
ag1315
ag2442
ag425
ag2091
ag977
ag2146
ag53
ag342
ag2087
ag3046
ag4666
ag5137
ag1487
ag1603
ag639
ag807
ag2685
ag766
ag808
ag4368
ag590
ag4595
ag1034
ag2369
ag3464
ag2549
ag3133
ag826
ag5303
ag2359
ag1604
ag3901
ag5344
ag4473
ag3639
ag4071
ag4264
ag4669
ag4729
ag5415
ag1628
ag4469
ag3104
ag2683
ag308
ag2038
ag869
ag3494
ag4713
ag3697
ag3078
ag705
ag125
ag2531
ag4689
ag3094
ag4511
ag296
ag5067
ag268
ag4639
ag1287
ag2724
ag3903
ag980
ag1207
ag4985
ag3312
ag3701
ag3989
ag3889
ag1415
ag1908
ag3408
ag1680
ag914
ag3054
ag3758
ag3380
ag880
ag2343
ag152
ag2586
ag4389
ag365
ag1124
ag3008
ag3649
ag1921
ag1190
ag2696
ag3410
ag2360
ag849
ag2792
ag275
ag4396
ag4039
ag1829
ag4289
ag4331
ag3092
ag5057
ag4561
ag1872
ag1365
ag1577
ag5428
ag1666
ag773
ag1004
ag2887
ag3037
ag3403
ag1278
ag4784
ag105
ag3695
ag4849
ag2051
ag117
ag959
ag3391
ag2698
ag107
ag3690
ag4419
ag2276
ag1843
ag3443
ag2808
ag4491
ag1714
ag4830
ag4399
ag4033
ag4066
ag1852
ag1211
ag3260
ag428
ag1731
ag2509
ag5379
ag3196
ag3006
ag741
ag4896
ag4518
ag5051
ag2983
ag5184
ag2054
ag2236
ag3491
ag3556
ag43
ag3174
ag1937
ag683
ag5085
ag2059
ag3204
ag448
ag2743
ag4559
ag703
ag2728
ag2461
ag4980
ag2695
ag4450
ag816
ag1152
ag1463
ag3141
ag1003
ag3839
ag3038
ag4972
ag3500
ag3963
ag4530
ag3358
ag4850
ag2321
ag3698
ag5214
ag1234
ag1411
ag3088
ag3247
ag2573
ag3072
ag2824
ag1517
ag1640
ag5080
ag3596
ag212
ag4737
ag1684
ag1304
ag360
ag3361
ag797
ag2504
ag4971
ag5405
ag4931
ag4655
ag659
ag218
ag4770
ag410
ag5245
ag1328
ag1732
ag33
ag231
ag4006
ag234
ag4956
ag4736
ag5002
ag3850
ag1832
ag3232
ag5297
ag3945
ag1253
ag4266
ag1811
ag2594
ag2649
ag2254
ag4233
ag2991
ag4304
ag872
ag2831
ag2571
ag429
ag3049
ag174
ag3063
ag5078
ag4131
ag3622
ag1870
ag5294
ag3282
ag825
ag591
ag1527
ag3219
ag578
ag3640
ag1801
ag1077
ag3827
ag2568
ag4388
ag5092
ag1453
ag4863
ag1762
ag2744
ag4815
ag3972
ag84
ag289
ag1464
ag5187
ag2721
ag333
ag3014
ag1641
ag2129
ag2241
ag4090
ag3798
ag2490
ag4634
ag3045
ag2302
ag5244
ag2655
ag1702
ag3621
ag4790
ag4069
ag4681
ag1537
ag3121
ag1270
ag279
ag5158
ag2081
ag5007
ag2421
ag4298
ag3192
ag5212
ag2449
ag4990
ag5402
ag4228
ag2404
ag4451
ag874
ag2972
ag728
ag4446
ag54
ag1400
ag5053
ag2273
ag1498
ag1964
ag3424
ag2253
ag160
ag2382
ag1879
ag3525
ag3266
ag1429
ag2361
ag3869
ag2062
ag4253
ag371
ag1239
ag1379
ag4910
ag3317
ag1334
ag317
ag1342
ag747
ag4309
ag4540
ag4086
ag2246
ag3099
ag653
ag2979
ag4217
ag2637
ag2570
ag5073
ag4769
ag4959
ag4596
ag4089
ag4472
ag5047
ag4866
ag1676
ag2251
ag1710
ag4827
ag519
ag451
ag411
ag3986
ag236
ag3585
ag1991
ag2699
ag2266
ag2341
ag3216
ag1973
ag431
ag1310
ag1606
ag2016
ag4326
ag1255
ag305
ag3419
ag5406
ag2850
ag4145
ag37
ag706
ag1165
ag5383
ag481
ag1857
ag5019
ag4182
ag3515
ag918
ag1745
ag2212
ag2474
ag2771
ag1914
ag4592
ag905
ag3685
ag4918
ag2193
ag4765
ag4402
ag1237
ag995
ag5084
ag923
ag5011
ag922
ag136
ag2543
ag629
ag1125
ag5264
ag5361
ag2520
ag424
ag5138
ag4720
ag3422
ag1302
ag3980
ag4329
ag2926
ag557
ag4668
ag3135
ag4683
ag1737
ag1532
ag4042
ag736
ag1838
ag827
ag4277
ag2668
ag4001
ag3561
ag1418
ag561
ag2801
ag1913
ag3211
ag1109
ag1214
ag2482
ag3524
ag274
ag1359
ag3825
ag1131
ag3885
ag1082
ag407
ag1045
ag4512
ag1678
ag435
ag1541
ag2688
ag3448
ag2636
ag3030
ag1662
ag1097
ag3802
ag2868
ag3856
ag1368
ag3126
ag5232
ag4149
ag5300
ag3264
ag4964
ag4603
ag2330
ag487
ag2453
ag2550
ag2295
ag4338
ag3381
ag727
ag694
ag2960
ag2725
ag42
ag4598
ag2961
ag4514
ag2723
ag2192
ag277
ag1993
ag5168
ag767
ag1999
ag4091
ag1431
ag501
ag3132
ag719
ag1822
ag1557
ag524
ag5284
ag2719
ag1789
ag3521
ag4411
ag915
ag4630
ag5373
ag1980
ag5366
ag2312
ag4571
ag1439
ag2546
ag2782
ag4579
ag3245
ag3304
ag3532
ag433
ag4251
ag3320
ag3673
ag312
ag2748
ag4933
ag187
ag2060
ag5114
ag4833
ag2316
ag1101
ag95
ag390
ag3283
ag8
ag972
ag2293
ag527
ag5301
ag4134
ag4351
ag2467
ag64
ag1102
ag1614
ag1652
ag1009
ag4273
ag3696
ag1317
ag521
ag1264
ag2891
ag3841
ag3436
ag413
ag4839
ag809
ag3586
ag3669
ag2554
ag2320
ag944
ag2397
ag3754
ag1407
ag2057
ag3760
ag3670
ag4219
ag179
ag3733
ag4693
ag320
ag1395
ag326
ag3249
ag664
ag3872
ag2120
ag4744
ag742
ag3117
ag4460
ag2931
ag3251
ag3917
ag5009
ag4112
ag5079
ag389
ag3672
ag1561
ag4593
ag5435
ag2946
ag697
ag2687
ag257
ag3988
ag2116
ag4602
ag1530
ag2025
ag2627
ag3066
ag2131
ag669
ag813
ag1508
ag1814
ag1076
ag5174
ag1468
ag1466
ag2022
ag788
ag2481
ag3619
ag908
ag3293
ag3997
ag4247
ag1336
ag4487
ag2154
ag4894
ag2287
ag761
ag3564
ag2804
ag3595
ag1609
ag3907
ag2303
ag717
ag4731
ag1740
ag805
ag3425
ag4314
ag2311
ag2409
ag757
ag2296
ag4871
ag4663
ag4468
ag3843
ag3558
ag762
ag1713
ag5426
ag1001
ag2558
ag2814
ag1783
ag4286
ag1559
ag1773
ag1917
ag1836
ag4917
ag4026
ag4543
ag1733
ag369
ag3090
ag1446
ag71
ag4895
ag3439
ag79
ag26
ag3148
ag4254
ag2864
ag520
ag1221
ag3507
ag3921
ag1524
ag4008
ag4834
ag799
ag4501
ag4027
ag1976
ag2288
ag735
ag4108
ag924
ag188
ag1523
ag938
ag1106
ag3224
ag2160
ag2673
ag3479
ag870
ag2476
ag5423
ag896
ag3620
ag2880
ag3471
ag4857
ag5211
ag1516
ag2500
ag87
ag169
ag4470
ag5126
ag3655
ag2985
ag3061
ag4481
ag2852
ag1563
ag2096
ag2024
ag1728
ag44
ag1117
ag178
ag1219
ag1130
ag1144
ag2282
ag1497
ag104
ag4110
ag2837
ag2684
ag691
ag2206
ag3883
ag4417
ag4621
ag1670
ag133
ag1711
ag4350
ag4940
ag1719
ag1758
ag3301
ag1225
ag3389
ag559
ag4070
ag5382
ag3641
ag343
ag1349
ag4922
ag4349
ag3495
ag5340
ag5249
ag4551
ag468
ag3518
ag3193
ag5360
ag4300
ag1256
ag1316
ag1376
ag1593
ag4572
ag3295
ag3601
ag3053
ag2767
ag4029
ag3362
ag1369
ag2598
ag469
ag2466
ag3217
ag4508
ag538
ag2392
ag1864
ag1977
ag751
ag2654
ag1079
ag622
ag1290
ag3476
ag594
ag5367
ag5283
ag4587
ag73
ag496
ag829
ag5281
ag118
ag2469
ag5006
ag1229
ag2524
ag4117
ag550
ag2823
ag4885
ag1706
ag564
ag2425
ag5167
ag3951
ag3325
ag2218
ag2110
ag2229
ag4421
ag595
ag2326
ag409
ag4828
ag1122
ag264
ag4125
ag1987
ag153
ag2516
ag774
ag787
ag4095
ag3387
ag2732
ag4216
ag4169
ag3079
ag2986
ag1883
ag517
ag1142
ag3277
ag1149
ag3549
ag1339
ag5235
ag2151
ag4633
ag1337
ag1163
ag1325
ag464
ag2825
ag3652
ag1854
ag4494
ag14
ag1427
ag3888
ag529
ag1048
ag346
ag2183
ag2385
ag3178
ag420
ag78
ag2036
ag1323
ag1968
ag394
ag1896
ag3653
ag4103
ag4745
ag4034
ag2222
ag1668
ag2487
ag1049
ag4088
ag1313
ag4687
ag3272
ag604
ag4785
ag2537
ag2322
ag3120
ag3116
ag3863
ag2784
ag3157
ag998
ag2158
ag4877
ag3363
ag3441
ag4626
ag3535
ag2835
ag3956
ag4774
ag555
ag3811
ag3357
ag3026
ag4195
ag181
ag929
ag2314
ag2995
ag4330
ag3750
ag81
ag5369
ag3777
ag5217
ag446
ag1043
ag2184
ag5122
ag3442
ag4989
ag3704
ag941
ag5429
ag3792
ag3562
ag3589
ag1725
ag2009
ag3598
ag300
ag3279
ag4766
ag3700
ag334
ag814
ag1158
ag3334
ag2869
ag318
ag3383
ag2107
ag3084
ag2604
ag366
ag2410
ag2640
ag3024
ag2174
ag4193
ag3107
ag2907
ag2194
ag3505
ag969
ag5190
ag2396
ag3765
ag3624
ag2015
ag2237
ag1044
ag4336
ag2412
ag5219
ag4660
ag2947
ag4954
ag400
ag2912
ag4803
ag1204
ag4128
ag2133
ag1876
ag5346
ag2569
ag4951
ag5110
ag4589
ag3747
ag5388
ag3342
ag1478
ag1620
ag1430
ag1362
ag442
ag1763
ag4993
ag4181
ag3953
ag4799
ag2739
ag203
ag1113
ag3470
ag2788
ag191
ag5124
ag4045
ag2238
ag4926
ag2148
ag2575
ag1850
ag3744
ag3106
ag2042
ag1804
ag3769
ag3275
ag132
ag4558
ag626
ag4063
ag3897
ag1698
ag1115
ag2595
ag3739
ag916
ag488
ag3992
ag3195
ag3570
ag3270
ag5165
ag1495
ag4414
ag4949
ag5359
ag4777
ag126
ag3390
ag1910
ag5179
ag1592
ag3131
ag4957
ag3368
ag4364
ag97
ag2309
ag80
ag4781
ag932
ag5036
ag243
ag454
ag712
ag4973
ag3214
ag2528
ag2895
ag4771
ag2269
ag3335
ag2736
ag146
ag2258
ag1826
ag1140
ag868
ag2747
ag3271
ag1723
ag5288
ag1018
ag1556
ag5139
ag3721
ag3187
ag4262
ag3163
ag2045
ag4002
ag4554
ag5102
ag2589
ag4260
ag4942
ag1792
ag421
ag5354
ag848
ag1841
ag2245
ag563
ag150
ag1177
ag4261
ag3866
ag3755
ag5396
ag351
ag1926
ag2501
ag3625
ag5173
ag2799
ag2848
ag2791
ag5191
ag1605
ag1643
ag4335
ag3059
ag1357
ag2757
ag5338
ag3444
ag644
ag25
ag607
ag745
ag2427
ag1619
ag4690
ag208
ag1552
ag1121
ag5195
ag777
ag4320
ag3153
ag3833
ag4016
ag2971
ag4696
ag1491
ag2053
ag1346
ag1104
ag2371
ag1581
ag4282
ag3756
ag5287
ag36
ag463
ag2631
ag2976
ag1612
ag1696
ag2058
ag485
ag4015
ag2495
ag4244
ag248
ag5065
ag3405
ag2155
ag2338
ag4826
ag2952
ag4773
ag1661
ag4142
ag4832
ag4533
ag1579
ag3306
ag4604
ag3783
ag4187
ag4052
ag2955
ag4199
ag1547
ag4099
ag4844
ag4550
ag4440
ag4325
ag4921
ag2099
ag2446
ag1573
ag4880
ag2118
ag161
ag5090
ag2647
ag1301
ag3182
ag269
ag3458
ag4404
ag4963
ag4767
ag4581
ag3752
ag2485
ag1157
ag4817
ag1271
ag4929
ag2088
ag3082
ag364
ag744
ag3898
ag3450
ag2067
ag792
ag979
ag634
ag1458
ag4805
ag62
ag3749
ag847
ag507
ag2867
ag2456
ag2750
ag5120
ag298
ag4158
ag172
ag302
ag1392
ag2585
ag3797
ag4622
ag498
ag4050
ag2177
ag1591
ag960
ag2507
ag4520
ag1575
ag4208
ag1057
ag3780
ag1868
ag108
ag2445
ag3379
ag5313
ag2305
ag2935
ag4946
ag3947
ag4202
ag3416
ag3481
ag2540
ag1196
ag3237
ag875
ag1305
ag576
ag3900
ag3970
ag1528
ag2503
ag1075
ag931
ag2966
ag3682
ag1898
ag2003
ag3504
ag1586
ag5268
ag5094
ag3359
ag4241
ag5318
ag4967
ag48
ag1825
ag439
ag3400
ag2176
ag145
ag2587
ag31
ag3129
ag35
ag4003
ag2136
ag3995
ag2491
ag5088
ag2529
ag3017
ag1116
ag5343
ag831
ag1056
ag539
ag2362
ag2541
ag606
ag4524
ag4674
ag1013
ag3818
ag4043
ag4471
ag4898
ag3845
ag3499
ag3488
ag4958
ag2386
ag3098
ag707
ag2224
ag4992
ag2007
ag3000
ag5130
ag1242
ag3613
ag3463
ag309
ag3602
ag3527
ag5145
ag5020
ag2727
ag143
ag4041
ag3013
ag2161
ag2448
ag4278
ag1562
ag2366
ag5308
ag3208
ag3615
ag154
ag1358
ag5368
ag1252
ag2759
ag4474
ag3326
ag1975
ag4120
ag1784
ag4004
ag2234
ag3651
ag3354
ag1869
ag633
ag1089
ag483
ag2665
ag2351
ag3221
ag1658
ag636
ag5104
ag249
ag660
ag2859
ag1931
ag5030
ag3307
ag5069
ag3057
ag3139
ag1626
ag3663
ag4020
ag2048
ag845
ag770
ag2900
ag5296
ag1426
ag401
ag3372
ag857
ag675
ag3822
ag1962
ag4750
ag1273
ag1176
ag2806
ag585
ag417
ag1997
ag3025
ag3341
ag4908
ag2368
ag2686
ag1800
ag5247
ag5096
ag3927
ag5362
ag276
ag2181
ag162
ag667
ag603
ag75
ag1751
ag3108
ag5125
ag240
ag3592
ag3745
ag2865
ag467
ag3978
ag5322
ag2219
ag4974
ag176
ag3914
ag4843
ag2496
ag1565
ag260
ag294
ag5274
ag3542
ag4459
ag3981
ag4307
ag199
ag3269
ag4991
ag5347
ag5115
ag3093
ag362
ag1143
ag4914
ag1363
ag4804
ag252
ag3761
ag3238
ag4695
ag4012
ag5166
ag5380
ag892
ag3573
ag4862
ag1192
ag2942
ag1564
ag3587
ag1988
ag739
ag4426
ag3242
ag1351
ag5146
ag1955
ag4185
ag4806
ag3486
ag266
ag1424
ag3541
ag2027
ag4787
ag2235
ag5392
ag2502
ag3588
ag4081
ag3603
ag818
ag718
ag685
ag528
ag1969
ag3771
ag4557
ag1928
ag854
ag4906
ag3473
ag1250
ag4855
ag2489
ag1038
ag5086
ag1724
ag1504
ag1434
ag4113
ag4616
ag3677
ag1613
ag324
ag2916
ag304
ag1132
ag1755
ag2195
ag1791
ag3493
ag2006
ag5330
ag3834
ag884
ag5008
ag5223
ag3318
ag3567
ag1356
ag4835
ag3707
ag2068
ag2432
ag4107
ag499
ag5437
ag3593
ag3746
ag1756
ag3676
ag5275
ag5207
ag1279
ag4406
ag3449
ag3254
ag2726
ag2672
ag625
ag1469
ag5252
ag63
ag3100
ag2892
ag824
ag4617
ag4230
ag4295
ag1629
ag3253
ag910
ag2226
ag2095
ag548
ag2614
ag2310
ag4334
ag4372
ag4311
ag2389
ag1753
ag5419
ag1066
ag2100
ag4174
ag1730
ag3575
ag41
ag919
ag1981
ag1423
ag352
ag5039
ag2775
ag3720
ag255
ag2140
ag3545
ag1019
ag983
ag4056
ag1294
ag881
ag4953
ag1021
ag3842
ag1473
ag3167
ag307
ag1397
ag946
ag3743
ag2156
ag893
ag1179
ag4445
ag1414
ag85
ag2244
ag2746
ag1574
ag3023
ag1148
ag1476
ag2447
ag1938
ag570
ag1611
ag4172
ag793
ag2114
ag2277
ag516
ag2342
ag2769
ag2513
ag635
ag1630
ag3071
ag3838
ag1994
ag4144
ag384
ag341
ag1300
ag368
ag2383
ag2885
ag2340
ag4611
ag5238
ag2374
ag1481
ag4601
ag2187
ag1107
ag3574
ag2512
ag3511
ag2861
ag3610
ag5106
ag1534
ag197
ag4739
ag4503
ag1309
ag782
ag2897
ag2600
ag3019
ag5353
ag565
ag2240
ag1834
ag2274
ag911
ag4776
ag5291
ag4165
ag3165
ag1073
ag610
ag225
ag4322
ag2856
ag2871
ag3952
ag1748
ag2424
ag3095
ag1813
ag4221
ag3029
ag2217
ag4294
ag3188
ag4762
ag4987
ag4667
ag1757
ag182
ag840
ag2896
ag2681
ag20
ag2049
ag367
ag4489
ag3118
ag1195
ag4123
ag4010
ag1853
ag1172
ag1809
ag2475
ag2752
ag1071
ag2483
ag2615
ag1319
ag3248
ag450
ag832
ag3261
ag4346
ag4118
ag1656
ag2441
ag3351
ag1514
ag3998
ag1051
ag1849
ag3614
ag3210
ag574
ag1590
ag1608
ag2109
ag2950
ag1120
ag3496
ag185
ag2704
ag288
ag1118
ag3961
ag2982
ag131
ag5278
ag3064
ag4312
ag2271
ag2301
ag1123
ag897
ag3256
ag4583
ag2666
ag4553
ag4905
ag2127
ag5116
ag452
ag5229
ag493
ag1381
ag2457
ag4710
ag5206
ag72
ag4101
ag2477
ag3973
ag355
ag4111
ag4711
ag1213
ag2544
ag4612
ag964
ag2661
ag1147
ag1833
ag3547
ag778
ag5398
ag3522
ag2086
ag5312
ag1634
ag2993
ag1548
ag551
ag1742
ag3616
ag4988
ag1340
ag1863
ag1650
ag2132
ag1649
ag3713
ag981
ag1621
ag2921
ag4060
ag2026
ag379
ag2591
ag4864
ag86
ag3748
ag860
ag3632
ag4213
ag1750
ag2070
ag1371
ag1572
ag5028
ag4636
ag5136
ag942
ag5143
ag2011
ag67
ag4628
ag4177
ag1151
ag4576
ag4968
ag3800
ag2209
ag2040
ag940
ag1699
ag1727
ag3878
ag4519
ag1651
ag28
ag2370
ag4151
ag4656
ag887
ag4947
ag768
ag5013
ag4237
ag2901
ag5316
ag1677
ag4482
ag1025
ag1771
ag3171
ag3723
ag3430
ag2894
ag1127
ag3011
ag4585
ag3286
ag5038
ag597
ag449
ag5154
ag1819
ag1020
ag1954
ag2128
ag4077
ag3299
ag2612
ag4290
ag3462
ag2755
ag2163
ag3432
ag2144
ag4265
ag1600
ag2532
ag4955
ag3447
ag313
ag4153
ag3643
ag4916
ag2406
ag3954
ag3413
ag128
ag4197
ag5055
ag1797
ag404
ag461
ag2973
ag4496
ag1859
ag4049
ag5385
ag4779
ag2605
ag973
ag5177
ag1296
ag4238
ag4212
ag359
ag3631
ag17
ag3168
ag1419
ag2881
ag4093
ag4343
ag558
ag2075
ag4810
ag1280
ag2460
ag1002
ag738
ag3882
ag2289
ag737
ag247
ag49
ag3969
ag5295
ag5044
ag5049
ag4861
ag2471
ag3205
ag4892
ag2998
ag3646
ag2375
ag3231
ag2506
ag2379
ag2250
ag605
ag2103
ag5409
ag1017
ag2874
ag852
ag1482
ag1939
ag815
ag3708
ag4570
ag2001
ag4068
ag1944
ag68
ag350
ag2980
ag4288
ag5129
ag4082
ag2159
ag2257
ag927
ag1585
ag3191
ag4064
ag2335
ag3803
ag4171
ag2809
ag4752
ag3343
ag5225
ag66
ag459
ag4479
ag3263
ag3656
ag796
ag447
ag3009
ag3893
ag4143
ag3002
ag190
ag142
ag4055
ag4044
ag5026
ag4355
ag3492
ag1168
ag510
ag2252
ag4381
ag1501
ag1408
ag1739
ag110
ag3207
ag5062
ag4170
ag3577
ag3407
ag4552
ag5152
ag1027
ag3321
ag2756
ag4413
ag2832
ag1384
ag4721
ag2563
ag3032
ag3647
ag779
ag819
ag256
ag1576
ag3294
ag1749
ag2428
ag5374
ag1026
ag4211
ag1688
ag2988
ag4122
ag3965
ag3693
ag295
ag5063
ag2437
ag3778
ag1370
ag1633
ag2956
ag2844
ag1036
ag4416
ag967
ag5417
ag1812
ag1058
ag3993
ag3287
ag2522
ag512
ag1674
ag3290
ag748
ag5119
ag4724
ag2497
ag2762
ag725
ag2994
ag1496
ag2853
ag4842
ag2583
ag2845
ag4229
ag5091
ag4869
ag5221
ag202
ag1471
ag2381
ag895
ag5159
ag1978
ag3138
ag1425
ag4205
ag2630
ag349
ag4268
ag885
ag5293
ag715
ag714
ag949
ag4124
ag1409
ag2260
ag3569
ag666
ag5098
ag1227
ag2519
ag3703
ag3644
ag743
ag3623
ag4150
ag3719
ag1383
ag2139
ag3392
ag4932
ag1184
ag180
ag5068
ag1957
ag883
ag4139
ag5147
ag4275
ag3530
ag4673
ag3546
ag3114
ag3034
ag4359
ag2948
ag1217
ag3674
ag4259
ag30
ag3946
ag5004
ag1503
ag1709
ag2828
ag3926
ag673
ag2420
ag207
ag148
ag5326
ag4019
ag3638
ag1484
ag4562
ag2620
ag242
ag2378
ag2716
ag4578
ag568
ag328
ag2588
ag543
ag951
ag1835
ag3190
ag3836
ag2978
ag2646
ag4339
ag3189
ag5372
ag4235
ag4225
ag3222
ag4358
ag205
ag3244
ag235
ag5170
ag3582
ag690
ag2679
ag1465
ag3096
ag3543
ag4659
ag3113
ag3553
ag4782
ag4222
ag2536
ag1373
ag1150
ag4127
ag2741
ag1006
ag1746
ag4465
ag4424
ag646
ag2256
ag2292
ag978
ag5302
ag4884
ag1681
ag2964
ag4645
ag3001
ag3227
ag61
ag3241
ag3420
ag1777
ag4960
ag645
ag834
ag1178
ag4748
ag210
ag3302
ag1817
ag2878
ag1413
ag553
ag5404
ag2949
ag378
ag280
ag3801
ag5202
ag2125
ag4658
ag4159
ag4227
ag3806
ag2074
ag1895
ag2938
ag4870
ag2889
ag758
ag3012
ag2760
ag1285
ag3960
ag5194
ag1490
ag2675
ag1186
ag4517
ag3994
ag2932
ag4231
ag1173
ag3881
ag4930
ag820
ag5263
ag5258
ag1060
ag4013
ag2486
ag211
ag4573
ag503
ag791
ag2076
ag2855
ag3246
ag2102
ag2346
ag5289
ag4868
ag403
ag2033
ag3775
ag1257
ag4605
ag4132
ag2803
ag1521
ag4037
ag2977
ag120
ag2072
ag60
ag4943
ag5285
ag1052
ag4751
ag5250
ag101
ag1705
ag5178
ag621
ag5097
ag2934
ag3311
ag2285
ag2539
ag46
ag3636
ag2737
ag3668
ag1155
ag2384
ag5213
ag3209
ag165
ag509
ag3911
ag4848
ag2547
ag1268
ag3852
ag4437
ag4962
ag2860
ag508
ag2592
ag4684
ag201
ag790
ag3130
ag1599
ag3103
ag4912
ag1164
ag1375
ag3999
ag3218
ag1477
ag4302
ag4379
ag4970
ag1899
ag3446
ag3759
ag3127
ag5386
ag4475
ag4676
ag878
ag129
ag1064
ag1860
ag455
ag5227
ag2866
ag2738
ag3456
ag3551
ag3712
ag3580
ag2134
ag460
ag5304
ag3376
ag3052
ag3399
ag798
ag267
ag1837
ag3089
ag1348
ag726
ag228
ag3753
ag4976
ag1353
ag769
ag322
ag2870
ag1182
ag1519
ag936
ag2783
ag836
ag4526
ag2459
ag3607
ag4507
ag2196
ag3812
ag2908
ag2012
ag3805
ag3923
ag4900
ag3347
ag1761
ag2708
ag855
ag2511
ag2149
ag1112
ag5395
ag3848
ag611
ag1449
ag4594
ag4625
ag5279
ag4283
ag1877
ag2992
ag3606
ag3184
ag2032
ag1951
ag2408
ag4532
ag377
ag3498
ag1802
ag3003
ag1549
ag567
ag3173
ag1583
ag2225
ag1953
ag2319
ag1960
ag535
ag1545
ag4536
ag3112
ag4978
ag4786
ag4567
ag1007
ag4250
ag2622
ag4851
ag2763
ag913
ag4981
ag1635
ag2069
ag4897
ag272
ag3028
ag5298
ag3258
ag3683
ag1810
ag1529
ag1332
ag596
ag5163
ag177
ag637
ag4443
ag1627
ag515
ag532
ag3497
ag1457
ag795
ag2523
ag2674
ag1546
ag2974
ag2777
ag196
ag3531
ag3968
ag708
ag4005
ag134
ag1086
ag57
ag1289
ag4574
ag866
ag3336
ag3274
ag2433
ag3557
ag2043
ag1821
ag4874
ag457
ag921
ag3905
ag2142
ag5023
ag2232
ag2179
ag2807
ag3015
ag3826
ag801
ag4727
ag88
ag4919
ag3949
ag5351
ag11
ag4537
ag4363
ag1483
ag3957
ag74
ag4939
ag934
ag966
ag4661
ag2431
ag4236
ag4263
ag3477
ag4405
ag3854
ag1808
ag4292
ag3807
ag1145
ag3772
ag954
ag2858
ag2893
ag4680
ag3291
ag1374
ag830
ag4795
ag1900
ag456
ag2533
ag4852
ag2215
ag2652
ag5112
ag4457
ag2029
ag1110
ag3345
ag370
ag504
ag861
ag2172
ag2670
ag1602
ag4648
ag4747
ag4755
ag3143
ag192
ag1230
ag215
ag3566
ag3816
ag3612
ag1350
ag113
ag2898
ag2813
ag4856
ag27
ag573
ag4732
ag2205
ag1024
ag3873
ag1401
ag4783
ag1551
ag3086
ag4504
ag4455
ag4032
ag1862
ag2450
ag3370
ag4072
ag2339
ag418
ag2836
ag3738
ag3176
ag1531
ag1040
ag135
ag5280
ag3468
ag837
ag1856
ag4610
ag480
ag141
ag580
ag2677
ag961
ag2337
ag2169
ag3501
ag4846
ag4435
ag844
ag1584
ag2875
ag5077
ag2577
ag4629
ag562
ag2472
ag437
ag4105
ag1074
ag1902
ag4944
ag1187
ag2883
ag1571
ag2919
ag4436
ag993
ag1261
ag2669
ag432
ag900
ag462
ag1201
ag842
ag1055
ag4741
ag4412
ag2969
ag5175
ag4588
ag1354
ag2286
ag1322
ag4166
ag4819
ag5031
ag5290
ag2833
ag2290
ag3355
ag4688
ag1288
ag1455
ag1692
ag4067
ag282
ag785
ag1596
ag2325
ag3847
ag1084
ag928
ag261
ag230
ag2452
ag405
ag1846
ag1884
ag3085
ag1522
ag925
ag2097
ag4422
ag3858
ag1554
ag3915
ag920
ag5433
ag4407
ag3327
ag734
ag628
ag2740
ag2829
ag3111
ag3658
ag3233
ag1642
ag3916
ag3661
ag3865
ag3737
ag3466
ag700
ag5410
ag5156
ag4354
ag3142
ag1440
ag4014
ag2958
ag1398
ag163
ag3941
ag4714
ag4541
ag3519
ag2658
ag482
ag4427
ag2773
ag5162
ag3692
ag357
ag2213
ag4224
ag1566
ag3796
ag4431
ag3849
ag4725
ag2334
ag77
ag4315
ag1129
ag4941
ag1844
ag2262
ag1100
ag2284
ag651
ag3540
ag239
ag2429
ag502
ag4670
ag5251
ag1014
ag3437
ag1795
ag3788
ag3689
ag2415
ag4104
ag2484
ag4323
ag2779
ag3223
ag5032
ag3110
ag2488
ag1459
ag1391
ag1647
ag4186
ag4891
ag4599
ag1167
ag579
ag701
ag4642
ag1638
ag250
ag4937
ag2200
ag1200
ag5209
ag985
ag3280
ag1922
ag2579
ag1735
ag5317
ag2751
ag2168
ag3305
ag5054
ag3506
ag1259
ag2940
ag828
ag3576
ag4458
ag3879
ag566
ag4146
ag817
ag1550
ag4310
ag3137
ag2863
ag599
ag301
ag740
ag3102
ag3594
ag4189
ag3385
ag3808
ag327
ag24
ag1154
ag2559
ag3186
ag4313
ag3255
ag3040
ag3727
ag1333
ag5352
ag2323
ag4928
ag2929
ag711
ag441
ag756
ag4565
ag262
ag4021
ag865
ag3913
ag229
ag1042
ag2332
ag593
ag4631
ag2145
ag2781
ag789
ag3581
ag4672
ag2693
ag937
ag1378
ag2644
ag901
ag4950
ag3912
ag100
ag1218
ag5153
ag1180
ag1094
ag953
ag1945
ag2820
ag2730
ag2493
ag2263
ag2005
ag5269
ag5022
ag682
ag713
ag4546
ag1983
ag4456
ag2066
ag1443
ag4423
ag3918
ag2356
ag5432
ag4467
ag2706
ag2028
ag4035
ag1726
ag3051
ag5233
ag5282
ag166
ag4510
ag3931
ag3764
ag3340
ag2201
ag724
ag2515
ag4798
ag4183
ag4637
ag1765
ag3867
ag4566
ag372
ag2899
ag1582
ag5425
ag5087
ag4239
ag4812
ag3428
ag3526
ag4733
ag2761
ag650
ag2656
ag1842
ag3627
ag3455
ag4047
ag4535
ag750
ag781
ag3985
ag1794
ag5048
ag5201
ag5228
ag3308
ag1432
ag764
ag803
ag886
ag3337
ag1450
ag3048
ag3350
ag4749
ag2046
ag3735
ag354
ag952
ag1399
ag2936
ag1191
ag2517
ag569
ag4164
ag1636
ag3080
ag2651
ag1580
ag5328
ag5336
ag4425
ag244
ag4529
ag4995
ag3819
ag2965
ag2717
ag2925
ag1971
ag5321
ag662
ag3297
ag3429
ag393
ag2689
ag1891
ag671
ag3281
ag195
ag4087
ag4137
ag4998
ag2596
ag2663
ag2619
ag19
ag3332
ag680
ag2304
ag149
ag4754
ag5131
ag3924
ag4075
ag4608
ag1892
ag5273
ag3235
ag4179
ag2117
ag2525
ag4735
ag4872
ag3770
ag4420
ag3666
ag2082
ag775
ag490
ag3202
ag2877
ag1990
ag486
ag4800
ag3384
ag2582
ag1015
ag3194
ag2357
ag2077
ag2324
ag2834
ag4686
ag5095
ag3645
ag189
ag3140
ag4178
ag3844
ag4948
ag380
ag643
ag3122
ag589
ag863
ag1063
ag702
ag3394
ag1823
ag3243
ag287
ag2927
ag3042
ag5427
ag4206
ag3944
ag1909
ag10
ag1291
ag458
ag5241
ag4449
ag4904
ag5311
ag1008
ag4915
ag1970
ag3198
ag608
ag2259
ag1445
ag5390
ag4886
ag2691
ag4887
ag1886
ag3288
ag3162
ag1396
ag582
ag1274
ag2607
ag4584
ag5339
ag873
ag5052
ag3894
ag119
ag237
ag3784
ag226
ag2795
ag1175
ag2108
ag1341
ag3552
ag167
ag219
ag3115
ag4738
ag2317
ag4582
ag4858
ag2720
ag3300
ag3489
ag5043
ag2904
ag4141
ag945
ag1023
ag3409
ag3977
ag853
ag4818
ag3027
ag5197
ag2599
ag2480
ag1220
ag1422
ag672
ag3445
ag4318
ag2395
ag4031
ag3851
ag3147
ag1807
ag4444
ag3181
ag5014
ag699
ag1540
ag1416
ag1011
ag4296
ag1632
ag1890
ag902
ag2165
ag4984
ag5231
ag3688
ag4157
ag4126
ag4847
ag2228
ag3932
ag1236
ag3962
ag5434
ag1161
ag1616
ag116
ag1095
ag609
ag668
ag1029
ag3709
ag2299
ag5118
ag3433
ag2050
ag3435
ag2297
ag3648
ag1318
ag3183
ag4757
ag3870
ag4243
ag1982
ag2468
ag2098
ag648
ag3930
ag759
ag1499
ag3846
ag2694
ag3062
ag3904
ag3767
ag858
ag2331
ag3203
ag783
ag311
ag1068
ag3959
ag2401
ag1266
ag5418
ag692
ag4162
ag2035
ag1610
ag423
ag1963
ag4623
ag2150
ag3815
ag5128
ag2905
ag2207
ag1695
ag90
ag746
ag5025
ag859
ag4671
ag9
ag2377
ag2436
ag1345
ag1470
ag3068
ag4023
ag5133
ag3724
ag1671
ag5375
ag4925
ag4092
ag5393
ag4965
ag2008
ag3375
ag2141
ag3681
ag3146
ag3781
ag1206
ag2210
ag4652
ag2152
ag1803
ag3056
ag4100
ag2434
ag3939
ag3908
ag5341
ag1420
ag1598
ag2650
ag2953
ag5315
ag3548
ag397
ag476
ag4619
ag4394
ag383
ag2707
ag661
ag278
ag1347
ag4136
ag888
ag1509
ag3426
ag5226
ag13
ag5378
ag4515
ag2268
ag4920
ag3617
ag2632
ag4252
ag4590
ag2711
ag2802
ag3799
ag1295
ag1456
ag1506
ag1170
ag4746
ag2073
ag3043
ag2593
ag5186
ag4801
ag2135
ag1306
ag1276
ag5027
ag1873
ag3296
ag514
ag2700
ag2462
ag2443
ag4287
ag4441
ag3794
ag4879
ag4084
ag5081
ag4644
ag2943
ag3475
ag65
ag315
ag3817
ag1588
ag2191
ag1526
ag1099
ag5407
ag2821
ag4065
ag771
ag2846
ag4191
ag4410
ag3352
ag1785
ag2564
ag4760
ag4569
ag1202
ag3047
ag4820
ag1828
ag4791
ag1885
ag4173
ag1461
ag492
ag5430
ag316
ag810
ag4527
ag1664
ag1041
ag991
ag4646
ag4600
ag2079
ag3906
ag1331
ag3060
ag3330
ag4753
ag5127
ag164
ag443
ag674
ag686
ag649
ag4691
ag1536
ag1128
ag2123
ag1249
ag1054
ag2794
ag2758
ag2085
ag3950
ag2221
ag5199
ag1916
ag3278
ag194
ag471
ag4367
ag721
ag992
ag2660
ag2772
ag5420
ag4152
ag2414
ag1806
ag2265
ag2645
ag263
ag1005
ag584
ag2138
ag1355
ag3482
ag3169
ag4580
ag4214
ag1103
ag3010
ag1607
ag2034
ag2957
ag1364
ag2920
ag3303
ag3427
ag4865
ag2611
ag5424
ag695
ag5331
ag1912
ag2508
ag1166
ag2902
ag3634
ag4923
ag506
ag752
ag3706
ag2623
ag5113
ag1265
ag3584
ag4506
ag323
ag4059
ag947
ag1046
ag3757
ag159
ag5236
ag2933
ag5134
ag4808
ag990
ag2041
ag5358
ag2243
ag1716
ag5416
ag518
ag69
ag5135
ag5150
ag2967
ag4386
ag340
ag652
ag387
ag325
ag2084
ag4348
ag3691
ag293
ag51
ag5192
ag4716
ag2729
ag3726
ag2065
ag3452
ag3919
ag2552
ag5071
ag4464
ag246
ag2030
ag3892
ag4649
ag193
ag206
ag1251
ag12
ag1080
ag4321
ag1111
ag3875
ag4560
ag2526
ag677
ag4837
ag4934
ag879
ag2281
ag2766
ag749
ag3680
ag1943
ag2968
ag5161
ag1673
ag5342
ag3782
ag4650
ag4378
ag3982
ag4607
ag2352
ag2390
ag3314
ag2997
ag4498
ag3555
ag2164
ag4316
ag5018
ag4483
ag4408
ag4106
ag549
ag4371
ag2915
ag2230
ag2510
ag615
ag4730
ag2306
ag4161
ag283
ag1752
ag220
ag3855
ag1486
ag2231
ag2248
ag416
ag2659
ag4486
ag1404
ag3170
ag3675
ag1788
ag3180
ag5205
ag4344
ag3315
ag50
ag3533
ag602
ag2676
ag4135
ag2494
ag4816
ag2419
ag4439
ag3388
ag2239
ag3679
ag47
ag258
ag534
ag271
ag3329
ag2186
ag4823
ag2680
ag4692
ag4888
ag5242
ag4430
ag353
ag112
ag4994
ag1366
ag4664
ag375
ag2400
ag3252
ag175
ag3226
ag3398
ag2787
ag2849
ag531
ag3200
asS'pad_id'
p5443
I0
sb.